(dp1
S'output'
p2
S"<type 'exceptions.TypeError'> __init__() got an unexpected keyword argument 'output'"
p3
sS'layer'
p4
S'/var/www/jmtws/web2py/applications/jmtws/controllers/default.py'
p5
sS'code'
p6
S'# -*- coding: utf-8 -*-\n# this file is released under public domain and you can use without limitations\n\n#########################################################################\n## This is a samples controller\n## - index is the default action of any application\n## - user is required for authentication and authorization\n## - download is for downloading files uploaded in the db (does streaming)\n## - call exposes all registered services (none by default)\n#########################################################################\n\n\'\'\'\ndef index():\n    """\n    example action using the internationalization operator T and flash\n    rendered by views/default/index.html or views/generic.html\n    """\n    response.flash = "Welcome to web2py!"\n    return dict(message=T(\'Hello World\'))\n\'\'\'\n\ndef index():\n    return dict(message=T("This is a the home of JMT webservices"))\n\nimport subprocess\nfrom tempfile import NamedTemporaryFile\n\n@request.restful()\ndef jmt():\n    response.view = \'generic.json\'\n    def POST(*args,**vars):\n        print args, vars\n        message = \'ok\'\n        result = False\n        try:\n            mode = args[0]\n        except IndexError:\n            mode = False\n        model = vars.get(\'model\')\n  \n        if not mode:\n            message = T(\'You have to select between mva or sim\')\n            result = False\n        elif not model:\n            message = T(\'No valid xml attached\')\n        else:\n            with NamedTemporaryFile() as f:\n                with NamedTemporaryFile() as o:\n                    f.write(model)\n                    subprocess.call(\'java -cp /opt/JMT.jar jmt.commandline.Jmt \'+ f.name, shell=True, output=o)\n                    o.seek(0)\n                    result = o.read()\n\n        return dict(\n                    message = message,\n                    result = result\n                   )\n    return locals()\n\ndef user():\n    """\n    exposes:\n    http://..../[app]/default/user/login\n    http://..../[app]/default/user/logout\n    http://..../[app]/default/user/register\n    http://..../[app]/default/user/profile\n    http://..../[app]/default/user/retrieve_password\n    http://..../[app]/default/user/change_password\n    use @auth.requires_login()\n        @auth.requires_membership(\'group name\')\n        @auth.requires_permission(\'read\',\'table name\',record_id)\n    to decorate functions that need access control\n    """\n    return dict(form=auth())\n\n\ndef download():\n    """\n    allows downloading of uploaded files\n    http://..../[app]/default/download/[filename]\n    """\n    return response.download(request,db)\n\n\ndef call():\n    """\n    exposes services. for example:\n    http://..../[app]/default/call/jsonrpc\n    decorate with @services.jsonrpc the functions to expose\n    supports xml, json, xmlrpc, jsonrpc, amfrpc, rss, csv\n    """\n    return service()\n\n\n@auth.requires_signature()\ndef data():\n    """\n    http://..../[app]/default/data/tables\n    http://..../[app]/default/data/create/[table]\n    http://..../[app]/default/data/read/[table]/[id]\n    http://..../[app]/default/data/update/[table]/[id]\n    http://..../[app]/default/data/delete/[table]/[id]\n    http://..../[app]/default/data/select/[table]\n    http://..../[app]/default/data/search/[table]\n    but URLs must be signed, i.e. linked with\n      A(\'table\',_href=URL(\'data/tables\',user_signature=True))\n    or with the signed load operator\n      LOAD(\'default\',\'data.load\',args=\'tables\',ajax=True,user_signature=True)\n    """\n    return dict(form=crud())\n\nresponse._vars=response._caller(jmt)\n'
p7
sS'snapshot'
p8
(dp9
S'exception'
p10
(dp11
S'__hash__'
p12
S"<method-wrapper '__hash__' of exceptions.TypeError object>"
p13
sS'__setattr__'
p14
S"<method-wrapper '__setattr__' of exceptions.TypeError object>"
p15
sS'__reduce_ex__'
p16
S'<built-in method __reduce_ex__ of exceptions.TypeError object>'
p17
sS'__getslice__'
p18
S"<method-wrapper '__getslice__' of exceptions.TypeError object>"
p19
sS'__getitem__'
p20
S"<method-wrapper '__getitem__' of exceptions.TypeError object>"
p21
sS'__setstate__'
p22
S'<built-in method __setstate__ of exceptions.TypeError object>'
p23
sS'args'
p24
S'("__init__() got an unexpected keyword argument \'output\'",)'
p25
sS'__reduce__'
p26
S'<built-in method __reduce__ of exceptions.TypeError object>'
p27
sS'__str__'
p28
S"<method-wrapper '__str__' of exceptions.TypeError object>"
p29
sS'__format__'
p30
S'<built-in method __format__ of exceptions.TypeError object>'
p31
sS'__getattribute__'
p32
S"<method-wrapper '__getattribute__' of exceptions.TypeError object>"
p33
sS'__class__'
p34
S"<type 'exceptions.TypeError'>"
p35
sS'__unicode__'
p36
S'<built-in method __unicode__ of exceptions.TypeError object>'
p37
sS'__delattr__'
p38
S"<method-wrapper '__delattr__' of exceptions.TypeError object>"
p39
sS'__subclasshook__'
p40
S'<built-in method __subclasshook__ of type object>'
p41
sS'__repr__'
p42
S"<method-wrapper '__repr__' of exceptions.TypeError object>"
p43
sS'__dict__'
p44
S'{}'
p45
sS'__sizeof__'
p46
S'<built-in method __sizeof__ of exceptions.TypeError object>'
p47
sS'__doc__'
p48
S"'Inappropriate argument type.'"
p49
sS'__init__'
p50
S"<method-wrapper '__init__' of exceptions.TypeError object>"
p51
sS'__new__'
p52
S'<built-in method __new__ of type object>'
p53
ssS'evalue'
p54
S"__init__() got an unexpected keyword argument 'output'"
p55
sS'request'
p56
ccopy_reg
_reconstructor
p57
(cgluon.html
BEAUTIFY
p58
c__builtin__
object
p59
NtRp60
(dp61
S'attributes'
p62
(dp63
sS'components'
p64
(lp65
g57
(cgluon.html
TABLE
p66
g59
NtRp67
(dp68
g62
(dp69
S'level'
p70
I5
ssS'parent'
p71
Nsg64
(lp72
g57
(cgluon.html
TR
p73
g59
NtRp74
(dp75
g62
(dp76
sg71
g67
sg64
(lp77
g57
(cgluon.html
TD
p78
g59
NtRp79
(dp80
g62
(dp81
S'_style'
p82
S'font-weight:bold;vertical-align:top'
p83
ssg71
g74
sg64
(lp84
S'ajax'
p85
asbag57
(g78
g59
NtRp86
(dp87
g62
(dp88
S'_valign'
p89
S'top'
p90
ssg71
g74
sg64
(lp91
S':'
asbag57
(g78
g59
NtRp92
(dp93
g62
(dp94
sg71
g74
sg64
(lp95
g57
(g58
g59
NtRp96
(dp97
g62
(dp98
g70
I5
ssg71
g92
sg64
(lp99
S'False'
p100
asbasbasbag57
(g73
g59
NtRp101
(dp102
g62
(dp103
sg71
g67
sg64
(lp104
g57
(g78
g59
NtRp105
(dp106
g62
(dp107
g82
g83
ssg71
g101
sg64
(lp108
S'application'
p109
asbag57
(g78
g59
NtRp110
(dp111
g62
(dp112
g89
g90
ssg71
g101
sg64
(lp113
S':'
asbag57
(g78
g59
NtRp114
(dp115
g62
(dp116
sg71
g101
sg64
(lp117
g57
(g58
g59
NtRp118
(dp119
g62
(dp120
g70
I5
ssg71
g114
sg64
(lp121
S'jmtws'
p122
asbasbasbag57
(g73
g59
NtRp123
(dp124
g62
(dp125
sg71
g67
sg64
(lp126
g57
(g78
g59
NtRp127
(dp128
g62
(dp129
g82
g83
ssg71
g123
sg64
(lp130
g24
asbag57
(g78
g59
NtRp131
(dp132
g62
(dp133
g89
g90
ssg71
g123
sg64
(lp134
S':'
asbag57
(g78
g59
NtRp135
(dp136
g62
(dp137
sg71
g123
sg64
(lp138
g57
(g58
g59
NtRp139
(dp140
g62
(dp141
g70
I5
ssg71
g135
sg64
(lp142
g57
(g66
g59
NtRp143
(dp144
g62
(dp145
g70
I4
ssg71
Nsg64
(lp146
g57
(g73
g59
NtRp147
(dp148
g62
(dp149
sg71
g143
sg64
(lp150
g57
(g78
g59
NtRp151
(dp152
g62
(dp153
sg71
g147
sg64
(lp154
g57
(g58
g59
NtRp155
(dp156
g62
(dp157
g70
I4
ssg71
g151
sg64
(lp158
S'mva'
p159
asbasbasbasbasbasbasbag57
(g73
g59
NtRp160
(dp161
g62
(dp162
sg71
g67
sg64
(lp163
g57
(g78
g59
NtRp164
(dp165
g62
(dp166
g82
g83
ssg71
g160
sg64
(lp167
S'body'
p168
asbag57
(g78
g59
NtRp169
(dp170
g62
(dp171
g89
g90
ssg71
g160
sg64
(lp172
S':'
asbag57
(g78
g59
NtRp173
(dp174
g62
(dp175
sg71
g160
sg64
(lp176
g57
(g58
g59
NtRp177
(dp178
g62
(dp179
g70
I5
ssg71
g173
sg64
(lp180
S"<open file '<fdopen>', mode 'w+b' at 0x33808a0>"
p181
asbasbasbag57
(g73
g59
NtRp182
(dp183
g62
(dp184
sg71
g67
sg64
(lp185
g57
(g78
g59
NtRp186
(dp187
g62
(dp188
g82
g83
ssg71
g182
sg64
(lp189
S'client'
p190
asbag57
(g78
g59
NtRp191
(dp192
g62
(dp193
g89
g90
ssg71
g182
sg64
(lp194
S':'
asbag57
(g78
g59
NtRp195
(dp196
g62
(dp197
sg71
g182
sg64
(lp198
g57
(g58
g59
NtRp199
(dp200
g62
(dp201
g70
I5
ssg71
g195
sg64
(lp202
S'127.0.0.1'
p203
asbasbasbag57
(g73
g59
NtRp204
(dp205
g62
(dp206
sg71
g67
sg64
(lp207
g57
(g78
g59
NtRp208
(dp209
g62
(dp210
g82
g83
ssg71
g204
sg64
(lp211
S'controller'
p212
asbag57
(g78
g59
NtRp213
(dp214
g62
(dp215
g89
g90
ssg71
g204
sg64
(lp216
S':'
asbag57
(g78
g59
NtRp217
(dp218
g62
(dp219
sg71
g204
sg64
(lp220
g57
(g58
g59
NtRp221
(dp222
g62
(dp223
g70
I5
ssg71
g217
sg64
(lp224
S'default'
p225
asbasbasbag57
(g73
g59
NtRp226
(dp227
g62
(dp228
sg71
g67
sg64
(lp229
g57
(g78
g59
NtRp230
(dp231
g62
(dp232
g82
g83
ssg71
g226
sg64
(lp233
S'cookies'
p234
asbag57
(g78
g59
NtRp235
(dp236
g62
(dp237
g89
g90
ssg71
g226
sg64
(lp238
S':'
asbag57
(g78
g59
NtRp239
(dp240
g62
(dp241
sg71
g226
sg64
(lp242
g57
(g58
g59
NtRp243
(dp244
g62
(dp245
g70
I5
ssg71
g239
sg64
(lp246
g57
(g66
g59
NtRp247
(dp248
g62
(dp249
g70
I4
ssg71
Nsg64
(lp250
sbasbasbasbag57
(g73
g59
NtRp251
(dp252
g62
(dp253
sg71
g67
sg64
(lp254
g57
(g78
g59
NtRp255
(dp256
g62
(dp257
g82
g83
ssg71
g251
sg64
(lp258
S'env'
p259
asbag57
(g78
g59
NtRp260
(dp261
g62
(dp262
g89
g90
ssg71
g251
sg64
(lp263
S':'
asbag57
(g78
g59
NtRp264
(dp265
g62
(dp266
sg71
g251
sg64
(lp267
g57
(g58
g59
NtRp268
(dp269
g62
(dp270
g70
I5
ssg71
g264
sg64
(lp271
g57
(g66
g59
NtRp272
(dp273
g62
(dp274
g70
I4
ssg71
Nsg64
(lp275
g57
(g73
g59
NtRp276
(dp277
g62
(dp278
sg71
g272
sg64
(lp279
g57
(g78
g59
NtRp280
(dp281
g62
(dp282
g82
g83
ssg71
g276
sg64
(lp283
S'app_folders'
p284
asbag57
(g78
g59
NtRp285
(dp286
g62
(dp287
g89
g90
ssg71
g276
sg64
(lp288
S':'
asbag57
(g78
g59
NtRp289
(dp290
g62
(dp291
sg71
g276
sg64
(lp292
g57
(g58
g59
NtRp293
(dp294
g62
(dp295
g70
I4
ssg71
g289
sg64
(lp296
S"set(['/var/www/jmtws/web2py/applications/jmtws/', '/var/www/jmtws/web2py/applications/admin/', '/var/www/jmtws/web2py/applications/welcome/'])"
p297
asbasbasbag57
(g73
g59
NtRp298
(dp299
g62
(dp300
sg71
g272
sg64
(lp301
g57
(g78
g59
NtRp302
(dp303
g62
(dp304
g82
g83
ssg71
g298
sg64
(lp305
S'applications_parent'
p306
asbag57
(g78
g59
NtRp307
(dp308
g62
(dp309
g89
g90
ssg71
g298
sg64
(lp310
S':'
asbag57
(g78
g59
NtRp311
(dp312
g62
(dp313
sg71
g298
sg64
(lp314
g57
(g58
g59
NtRp315
(dp316
g62
(dp317
g70
I4
ssg71
g311
sg64
(lp318
S'/var/www/jmtws/web2py'
p319
asbasbasbag57
(g73
g59
NtRp320
(dp321
g62
(dp322
sg71
g272
sg64
(lp323
g57
(g78
g59
NtRp324
(dp325
g62
(dp326
g82
g83
ssg71
g320
sg64
(lp327
S'cmd_args'
p328
asbag57
(g78
g59
NtRp329
(dp330
g62
(dp331
g89
g90
ssg71
g320
sg64
(lp332
S':'
asbag57
(g78
g59
NtRp333
(dp334
g62
(dp335
sg71
g320
sg64
(lp336
g57
(g58
g59
NtRp337
(dp338
g62
(dp339
g70
I4
ssg71
g333
sg64
(lp340
g57
(g66
g59
NtRp341
(dp342
g62
(dp343
g70
I3
ssg71
Nsg64
(lp344
sbasbasbasbag57
(g73
g59
NtRp345
(dp346
g62
(dp347
sg71
g272
sg64
(lp348
g57
(g78
g59
NtRp349
(dp350
g62
(dp351
g82
g83
ssg71
g345
sg64
(lp352
S'cmd_options'
p353
asbag57
(g78
g59
NtRp354
(dp355
g62
(dp356
g89
g90
ssg71
g345
sg64
(lp357
S':'
asbag57
(g78
g59
NtRp358
(dp359
g62
(dp360
sg71
g345
sg64
(lp361
g57
(g58
g59
NtRp362
(dp363
g62
(dp364
g70
I4
ssg71
g358
sg64
(lp365
S"<Values at 0x2b4ebd8: {'verbose': False, 'ip': '127.0.0.1', 'shutdown_timeout': 5, 'taskbar': False, 'nocron': False, 'pid_filename': 'httpserver.pid', 'maxthreads': None, 'softcron': False, 'server_name': 'JMT-webservices', 'bpython': False, 'nogui': False, 'port': 8000, 'extcron': False, 'debuglevel': 30, 'test': None, 'folder': '/var/www/jmtws/web2py', 'config': '', 'import_models': False, 'winservice': '', 'shell': None, 'run': '', 'log_filename': 'httpserver.log', 'args': [''], 'socket_timeout': 1, 'ssl_ca_certificate': None, 'scheduler': None, 'profiler_filename': None, 'ssl_private_key': '', 'password': 'admin', 'request_queue_size': 5, 'ssl_certificate': '', 'cronjob': False, 'numthreads': None, 'quiet': False, 'interfaces': None, 'minthreads': None, 'timeout': 10, 'plain': False, 'nobanner': False}>"
p366
asbasbasbag57
(g73
g59
NtRp367
(dp368
g62
(dp369
sg71
g272
sg64
(lp370
g57
(g78
g59
NtRp371
(dp372
g62
(dp373
g82
g83
ssg71
g367
sg64
(lp374
S'content_length'
p375
asbag57
(g78
g59
NtRp376
(dp377
g62
(dp378
g89
g90
ssg71
g367
sg64
(lp379
S':'
asbag57
(g78
g59
NtRp380
(dp381
g62
(dp382
sg71
g367
sg64
(lp383
g57
(g58
g59
NtRp384
(dp385
g62
(dp386
g70
I4
ssg71
g380
sg64
(lp387
S'1101'
p388
asbasbasbag57
(g73
g59
NtRp389
(dp390
g62
(dp391
sg71
g272
sg64
(lp392
g57
(g78
g59
NtRp393
(dp394
g62
(dp395
g82
g83
ssg71
g389
sg64
(lp396
S'content_type'
p397
asbag57
(g78
g59
NtRp398
(dp399
g62
(dp400
g89
g90
ssg71
g389
sg64
(lp401
S':'
asbag57
(g78
g59
NtRp402
(dp403
g62
(dp404
sg71
g389
sg64
(lp405
g57
(g58
g59
NtRp406
(dp407
g62
(dp408
g70
I4
ssg71
g402
sg64
(lp409
S'application/x-www-form-urlencoded'
p410
asbasbasbag57
(g73
g59
NtRp411
(dp412
g62
(dp413
sg71
g272
sg64
(lp414
g57
(g78
g59
NtRp415
(dp416
g62
(dp417
g82
g83
ssg71
g411
sg64
(lp418
S'db_sessions'
p419
asbag57
(g78
g59
NtRp420
(dp421
g62
(dp422
g89
g90
ssg71
g411
sg64
(lp423
S':'
asbag57
(g78
g59
NtRp424
(dp425
g62
(dp426
sg71
g411
sg64
(lp427
g57
(g58
g59
NtRp428
(dp429
g62
(dp430
g70
I4
ssg71
g424
sg64
(lp431
S'set([])'
p432
asbasbasbag57
(g73
g59
NtRp433
(dp434
g62
(dp435
sg71
g272
sg64
(lp436
g57
(g78
g59
NtRp437
(dp438
g62
(dp439
g82
g83
ssg71
g433
sg64
(lp440
S'debugging'
p441
asbag57
(g78
g59
NtRp442
(dp443
g62
(dp444
g89
g90
ssg71
g433
sg64
(lp445
S':'
asbag57
(g78
g59
NtRp446
(dp447
g62
(dp448
sg71
g433
sg64
(lp449
g57
(g58
g59
NtRp450
(dp451
g62
(dp452
g70
I4
ssg71
g446
sg64
(lp453
g100
asbasbasbag57
(g73
g59
NtRp454
(dp455
g62
(dp456
sg71
g272
sg64
(lp457
g57
(g78
g59
NtRp458
(dp459
g62
(dp460
g82
g83
ssg71
g454
sg64
(lp461
S'gluon_parent'
p462
asbag57
(g78
g59
NtRp463
(dp464
g62
(dp465
g89
g90
ssg71
g454
sg64
(lp466
S':'
asbag57
(g78
g59
NtRp467
(dp468
g62
(dp469
sg71
g454
sg64
(lp470
g57
(g58
g59
NtRp471
(dp472
g62
(dp473
g70
I4
ssg71
g467
sg64
(lp474
S'/var/www/jmtws/web2py'
p475
asbasbasbag57
(g73
g59
NtRp476
(dp477
g62
(dp478
sg71
g272
sg64
(lp479
g57
(g78
g59
NtRp480
(dp481
g62
(dp482
g82
g83
ssg71
g476
sg64
(lp483
S'http_accept'
p484
asbag57
(g78
g59
NtRp485
(dp486
g62
(dp487
g89
g90
ssg71
g476
sg64
(lp488
S':'
asbag57
(g78
g59
NtRp489
(dp490
g62
(dp491
sg71
g476
sg64
(lp492
g57
(g58
g59
NtRp493
(dp494
g62
(dp495
g70
I4
ssg71
g489
sg64
(lp496
S'*/*'
p497
asbasbasbag57
(g73
g59
NtRp498
(dp499
g62
(dp500
sg71
g272
sg64
(lp501
g57
(g78
g59
NtRp502
(dp503
g62
(dp504
g82
g83
ssg71
g498
sg64
(lp505
S'http_content_length'
p506
asbag57
(g78
g59
NtRp507
(dp508
g62
(dp509
g89
g90
ssg71
g498
sg64
(lp510
S':'
asbag57
(g78
g59
NtRp511
(dp512
g62
(dp513
sg71
g498
sg64
(lp514
g57
(g58
g59
NtRp515
(dp516
g62
(dp517
g70
I4
ssg71
g511
sg64
(lp518
g388
asbasbasbag57
(g73
g59
NtRp519
(dp520
g62
(dp521
sg71
g272
sg64
(lp522
g57
(g78
g59
NtRp523
(dp524
g62
(dp525
g82
g83
ssg71
g519
sg64
(lp526
S'http_content_type'
p527
asbag57
(g78
g59
NtRp528
(dp529
g62
(dp530
g89
g90
ssg71
g519
sg64
(lp531
S':'
asbag57
(g78
g59
NtRp532
(dp533
g62
(dp534
sg71
g519
sg64
(lp535
g57
(g58
g59
NtRp536
(dp537
g62
(dp538
g70
I4
ssg71
g532
sg64
(lp539
g410
asbasbasbag57
(g73
g59
NtRp540
(dp541
g62
(dp542
sg71
g272
sg64
(lp543
g57
(g78
g59
NtRp544
(dp545
g62
(dp546
g82
g83
ssg71
g540
sg64
(lp547
S'http_expect'
p548
asbag57
(g78
g59
NtRp549
(dp550
g62
(dp551
g89
g90
ssg71
g540
sg64
(lp552
S':'
asbag57
(g78
g59
NtRp553
(dp554
g62
(dp555
sg71
g540
sg64
(lp556
g57
(g58
g59
NtRp557
(dp558
g62
(dp559
g70
I4
ssg71
g553
sg64
(lp560
S'100-continue'
p561
asbasbasbag57
(g73
g59
NtRp562
(dp563
g62
(dp564
sg71
g272
sg64
(lp565
g57
(g78
g59
NtRp566
(dp567
g62
(dp568
g82
g83
ssg71
g562
sg64
(lp569
S'http_host'
p570
asbag57
(g78
g59
NtRp571
(dp572
g62
(dp573
g89
g90
ssg71
g562
sg64
(lp574
S':'
asbag57
(g78
g59
NtRp575
(dp576
g62
(dp577
sg71
g562
sg64
(lp578
g57
(g58
g59
NtRp579
(dp580
g62
(dp581
g70
I4
ssg71
g575
sg64
(lp582
S'localhost:8001'
p583
asbasbasbag57
(g73
g59
NtRp584
(dp585
g62
(dp586
sg71
g272
sg64
(lp587
g57
(g78
g59
NtRp588
(dp589
g62
(dp590
g82
g83
ssg71
g584
sg64
(lp591
S'http_user_agent'
p592
asbag57
(g78
g59
NtRp593
(dp594
g62
(dp595
g89
g90
ssg71
g584
sg64
(lp596
S':'
asbag57
(g78
g59
NtRp597
(dp598
g62
(dp599
sg71
g584
sg64
(lp600
g57
(g58
g59
NtRp601
(dp602
g62
(dp603
g70
I4
ssg71
g597
sg64
(lp604
S'curl/7.21.6 (x86_64-pc-linux-gnu) libcurl/7.21.6 OpenSSL/1.0.0e zlib/1.2.3.4 libidn/1.22 librtmp/2.3'
p605
asbasbasbag57
(g73
g59
NtRp606
(dp607
g62
(dp608
sg71
g272
sg64
(lp609
g57
(g78
g59
NtRp610
(dp611
g62
(dp612
g82
g83
ssg71
g606
sg64
(lp613
S'is_jython'
p614
asbag57
(g78
g59
NtRp615
(dp616
g62
(dp617
g89
g90
ssg71
g606
sg64
(lp618
S':'
asbag57
(g78
g59
NtRp619
(dp620
g62
(dp621
sg71
g606
sg64
(lp622
g57
(g58
g59
NtRp623
(dp624
g62
(dp625
g70
I4
ssg71
g619
sg64
(lp626
g100
asbasbasbag57
(g73
g59
NtRp627
(dp628
g62
(dp629
sg71
g272
sg64
(lp630
g57
(g78
g59
NtRp631
(dp632
g62
(dp633
g82
g83
ssg71
g627
sg64
(lp634
S'is_pypy'
p635
asbag57
(g78
g59
NtRp636
(dp637
g62
(dp638
g89
g90
ssg71
g627
sg64
(lp639
S':'
asbag57
(g78
g59
NtRp640
(dp641
g62
(dp642
sg71
g627
sg64
(lp643
g57
(g58
g59
NtRp644
(dp645
g62
(dp646
g70
I4
ssg71
g640
sg64
(lp647
g100
asbasbasbag57
(g73
g59
NtRp648
(dp649
g62
(dp650
sg71
g272
sg64
(lp651
g57
(g78
g59
NtRp652
(dp653
g62
(dp654
g82
g83
ssg71
g648
sg64
(lp655
S'path_info'
p656
asbag57
(g78
g59
NtRp657
(dp658
g62
(dp659
g89
g90
ssg71
g648
sg64
(lp660
S':'
asbag57
(g78
g59
NtRp661
(dp662
g62
(dp663
sg71
g648
sg64
(lp664
g57
(g58
g59
NtRp665
(dp666
g62
(dp667
g70
I4
ssg71
g661
sg64
(lp668
S'/jmtws/default/jmt/mva'
p669
asbasbasbag57
(g73
g59
NtRp670
(dp671
g62
(dp672
sg71
g272
sg64
(lp673
g57
(g78
g59
NtRp674
(dp675
g62
(dp676
g82
g83
ssg71
g670
sg64
(lp677
S'query_string'
p678
asbag57
(g78
g59
NtRp679
(dp680
g62
(dp681
g89
g90
ssg71
g670
sg64
(lp682
S':'
asbag57
(g78
g59
NtRp683
(dp684
g62
(dp685
sg71
g670
sg64
(lp686
g57
(g58
g59
NtRp687
(dp688
g62
(dp689
g70
I4
ssg71
g683
sg64
(lp690
S''
asbasbasbag57
(g73
g59
NtRp691
(dp692
g62
(dp693
sg71
g272
sg64
(lp694
g57
(g78
g59
NtRp695
(dp696
g62
(dp697
g82
g83
ssg71
g691
sg64
(lp698
S'remote_addr'
p699
asbag57
(g78
g59
NtRp700
(dp701
g62
(dp702
g89
g90
ssg71
g691
sg64
(lp703
S':'
asbag57
(g78
g59
NtRp704
(dp705
g62
(dp706
sg71
g691
sg64
(lp707
g57
(g58
g59
NtRp708
(dp709
g62
(dp710
g70
I4
ssg71
g704
sg64
(lp711
g203
asbasbasbag57
(g73
g59
NtRp712
(dp713
g62
(dp714
sg71
g272
sg64
(lp715
g57
(g78
g59
NtRp716
(dp717
g62
(dp718
g82
g83
ssg71
g712
sg64
(lp719
S'remote_port'
p720
asbag57
(g78
g59
NtRp721
(dp722
g62
(dp723
g89
g90
ssg71
g712
sg64
(lp724
S':'
asbag57
(g78
g59
NtRp725
(dp726
g62
(dp727
sg71
g712
sg64
(lp728
g57
(g58
g59
NtRp729
(dp730
g62
(dp731
g70
I4
ssg71
g725
sg64
(lp732
S'48444'
p733
asbasbasbag57
(g73
g59
NtRp734
(dp735
g62
(dp736
sg71
g272
sg64
(lp737
g57
(g78
g59
NtRp738
(dp739
g62
(dp740
g82
g83
ssg71
g734
sg64
(lp741
S'request_method'
p742
asbag57
(g78
g59
NtRp743
(dp744
g62
(dp745
g89
g90
ssg71
g734
sg64
(lp746
S':'
asbag57
(g78
g59
NtRp747
(dp748
g62
(dp749
sg71
g734
sg64
(lp750
g57
(g58
g59
NtRp751
(dp752
g62
(dp753
g70
I4
ssg71
g747
sg64
(lp754
S'POST'
p755
asbasbasbag57
(g73
g59
NtRp756
(dp757
g62
(dp758
sg71
g272
sg64
(lp759
g57
(g78
g59
NtRp760
(dp761
g62
(dp762
g82
g83
ssg71
g756
sg64
(lp763
S'script_name'
p764
asbag57
(g78
g59
NtRp765
(dp766
g62
(dp767
g89
g90
ssg71
g756
sg64
(lp768
S':'
asbag57
(g78
g59
NtRp769
(dp770
g62
(dp771
sg71
g756
sg64
(lp772
g57
(g58
g59
NtRp773
(dp774
g62
(dp775
g70
I4
ssg71
g769
sg64
(lp776
S''
asbasbasbag57
(g73
g59
NtRp777
(dp778
g62
(dp779
sg71
g272
sg64
(lp780
g57
(g78
g59
NtRp781
(dp782
g62
(dp783
g82
g83
ssg71
g777
sg64
(lp784
S'server_name'
p785
asbag57
(g78
g59
NtRp786
(dp787
g62
(dp788
g89
g90
ssg71
g777
sg64
(lp789
S':'
asbag57
(g78
g59
NtRp790
(dp791
g62
(dp792
sg71
g777
sg64
(lp793
g57
(g58
g59
NtRp794
(dp795
g62
(dp796
g70
I4
ssg71
g790
sg64
(lp797
S'JMT-webservices'
p798
asbasbasbag57
(g73
g59
NtRp799
(dp800
g62
(dp801
sg71
g272
sg64
(lp802
g57
(g78
g59
NtRp803
(dp804
g62
(dp805
g82
g83
ssg71
g799
sg64
(lp806
S'server_port'
p807
asbag57
(g78
g59
NtRp808
(dp809
g62
(dp810
g89
g90
ssg71
g799
sg64
(lp811
S':'
asbag57
(g78
g59
NtRp812
(dp813
g62
(dp814
sg71
g799
sg64
(lp815
g57
(g58
g59
NtRp816
(dp817
g62
(dp818
g70
I4
ssg71
g812
sg64
(lp819
S'8000'
p820
asbasbasbag57
(g73
g59
NtRp821
(dp822
g62
(dp823
sg71
g272
sg64
(lp824
g57
(g78
g59
NtRp825
(dp826
g62
(dp827
g82
g83
ssg71
g821
sg64
(lp828
S'server_protocol'
p829
asbag57
(g78
g59
NtRp830
(dp831
g62
(dp832
g89
g90
ssg71
g821
sg64
(lp833
S':'
asbag57
(g78
g59
NtRp834
(dp835
g62
(dp836
sg71
g821
sg64
(lp837
g57
(g58
g59
NtRp838
(dp839
g62
(dp840
g70
I4
ssg71
g834
sg64
(lp841
S'HTTP/1.1'
p842
asbasbasbag57
(g73
g59
NtRp843
(dp844
g62
(dp845
sg71
g272
sg64
(lp846
g57
(g78
g59
NtRp847
(dp848
g62
(dp849
g82
g83
ssg71
g843
sg64
(lp850
S'server_software'
p851
asbag57
(g78
g59
NtRp852
(dp853
g62
(dp854
g89
g90
ssg71
g843
sg64
(lp855
S':'
asbag57
(g78
g59
NtRp856
(dp857
g62
(dp858
sg71
g843
sg64
(lp859
g57
(g58
g59
NtRp860
(dp861
g62
(dp862
g70
I4
ssg71
g856
sg64
(lp863
S'Rocket 1.2.4'
p864
asbasbasbag57
(g73
g59
NtRp865
(dp866
g62
(dp867
sg71
g272
sg64
(lp868
g57
(g78
g59
NtRp869
(dp870
g62
(dp871
g82
g83
ssg71
g865
sg64
(lp872
S'web2py_crontype'
p873
asbag57
(g78
g59
NtRp874
(dp875
g62
(dp876
g89
g90
ssg71
g865
sg64
(lp877
S':'
asbag57
(g78
g59
NtRp878
(dp879
g62
(dp880
sg71
g865
sg64
(lp881
g57
(g58
g59
NtRp882
(dp883
g62
(dp884
g70
I4
ssg71
g878
sg64
(lp885
S'hard'
p886
asbasbasbag57
(g73
g59
NtRp887
(dp888
g62
(dp889
sg71
g272
sg64
(lp890
g57
(g78
g59
NtRp891
(dp892
g62
(dp893
g82
g83
ssg71
g887
sg64
(lp894
S'web2py_path'
p895
asbag57
(g78
g59
NtRp896
(dp897
g62
(dp898
g89
g90
ssg71
g887
sg64
(lp899
S':'
asbag57
(g78
g59
NtRp900
(dp901
g62
(dp902
sg71
g887
sg64
(lp903
g57
(g58
g59
NtRp904
(dp905
g62
(dp906
g70
I4
ssg71
g900
sg64
(lp907
g319
asbasbasbag57
(g73
g59
NtRp908
(dp909
g62
(dp910
sg71
g272
sg64
(lp911
g57
(g78
g59
NtRp912
(dp913
g62
(dp914
g82
g83
ssg71
g908
sg64
(lp915
S'web2py_version'
p916
asbag57
(g78
g59
NtRp917
(dp918
g62
(dp919
g89
g90
ssg71
g908
sg64
(lp920
S':'
asbag57
(g78
g59
NtRp921
(dp922
g62
(dp923
sg71
g908
sg64
(lp924
g57
(g58
g59
NtRp925
(dp926
g62
(dp927
g70
I4
ssg71
g921
sg64
(lp928
g57
(g66
g59
NtRp929
(dp930
g62
(dp931
g70
I3
ssg71
Nsg64
(lp932
g57
(g73
g59
NtRp933
(dp934
g62
(dp935
sg71
g929
sg64
(lp936
g57
(g78
g59
NtRp937
(dp938
g62
(dp939
sg71
g933
sg64
(lp940
g57
(g58
g59
NtRp941
(dp942
g62
(dp943
g70
I3
ssg71
g937
sg64
(lp944
S'1'
asbasbasbag57
(g73
g59
NtRp945
(dp946
g62
(dp947
sg71
g929
sg64
(lp948
g57
(g78
g59
NtRp949
(dp950
g62
(dp951
sg71
g945
sg64
(lp952
g57
(g58
g59
NtRp953
(dp954
g62
(dp955
g70
I3
ssg71
g949
sg64
(lp956
S'99'
p957
asbasbasbag57
(g73
g59
NtRp958
(dp959
g62
(dp960
sg71
g929
sg64
(lp961
g57
(g78
g59
NtRp962
(dp963
g62
(dp964
sg71
g958
sg64
(lp965
g57
(g58
g59
NtRp966
(dp967
g62
(dp968
g70
I3
ssg71
g962
sg64
(lp969
S'4'
asbasbasbag57
(g73
g59
NtRp970
(dp971
g62
(dp972
sg71
g929
sg64
(lp973
g57
(g78
g59
NtRp974
(dp975
g62
(dp976
sg71
g970
sg64
(lp977
g57
(g58
g59
NtRp978
(dp979
g62
(dp980
g70
I3
ssg71
g974
sg64
(lp981
S'datetime.datetime(2011, 12, 14, 14, 46, 14)'
p982
asbasbasbag57
(g73
g59
NtRp983
(dp984
g62
(dp985
sg71
g929
sg64
(lp986
g57
(g78
g59
NtRp987
(dp988
g62
(dp989
sg71
g983
sg64
(lp990
g57
(g58
g59
NtRp991
(dp992
g62
(dp993
g70
I3
ssg71
g987
sg64
(lp994
S'stable'
p995
asbasbasbasbasbasbasbag57
(g73
g59
NtRp996
(dp997
g62
(dp998
sg71
g272
sg64
(lp999
g57
(g78
g59
NtRp1000
(dp1001
g62
(dp1002
g82
g83
ssg71
g996
sg64
(lp1003
S'wsgi_errors'
p1004
asbag57
(g78
g59
NtRp1005
(dp1006
g62
(dp1007
g89
g90
ssg71
g996
sg64
(lp1008
S':'
asbag57
(g78
g59
NtRp1009
(dp1010
g62
(dp1011
sg71
g996
sg64
(lp1012
g57
(g58
g59
NtRp1013
(dp1014
g62
(dp1015
g70
I4
ssg71
g1009
sg64
(lp1016
S"<open file '<stderr>', mode 'w' at 0x7ff085940270>"
p1017
asbasbasbag57
(g73
g59
NtRp1018
(dp1019
g62
(dp1020
sg71
g272
sg64
(lp1021
g57
(g78
g59
NtRp1022
(dp1023
g62
(dp1024
g82
g83
ssg71
g1018
sg64
(lp1025
S'wsgi_file_wrapper'
p1026
asbag57
(g78
g59
NtRp1027
(dp1028
g62
(dp1029
g89
g90
ssg71
g1018
sg64
(lp1030
S':'
asbag57
(g78
g59
NtRp1031
(dp1032
g62
(dp1033
sg71
g1018
sg64
(lp1034
g57
(g58
g59
NtRp1035
(dp1036
g62
(dp1037
g70
I4
ssg71
g1031
sg64
(lp1038
S'<class wsgiref.util.FileWrapper at 0x2a8b4c8>'
p1039
asbasbasbag57
(g73
g59
NtRp1040
(dp1041
g62
(dp1042
sg71
g272
sg64
(lp1043
g57
(g78
g59
NtRp1044
(dp1045
g62
(dp1046
g82
g83
ssg71
g1040
sg64
(lp1047
S'wsgi_input'
p1048
asbag57
(g78
g59
NtRp1049
(dp1050
g62
(dp1051
g89
g90
ssg71
g1040
sg64
(lp1052
S':'
asbag57
(g78
g59
NtRp1053
(dp1054
g62
(dp1055
sg71
g1040
sg64
(lp1056
g57
(g58
g59
NtRp1057
(dp1058
g62
(dp1059
g70
I4
ssg71
g1053
sg64
(lp1060
S'<socket._fileobject object at 0x3888b50>'
p1061
asbasbasbag57
(g73
g59
NtRp1062
(dp1063
g62
(dp1064
sg71
g272
sg64
(lp1065
g57
(g78
g59
NtRp1066
(dp1067
g62
(dp1068
g82
g83
ssg71
g1062
sg64
(lp1069
S'wsgi_multiprocess'
p1070
asbag57
(g78
g59
NtRp1071
(dp1072
g62
(dp1073
g89
g90
ssg71
g1062
sg64
(lp1074
S':'
asbag57
(g78
g59
NtRp1075
(dp1076
g62
(dp1077
sg71
g1062
sg64
(lp1078
g57
(g58
g59
NtRp1079
(dp1080
g62
(dp1081
g70
I4
ssg71
g1075
sg64
(lp1082
g100
asbasbasbag57
(g73
g59
NtRp1083
(dp1084
g62
(dp1085
sg71
g272
sg64
(lp1086
g57
(g78
g59
NtRp1087
(dp1088
g62
(dp1089
g82
g83
ssg71
g1083
sg64
(lp1090
S'wsgi_multithread'
p1091
asbag57
(g78
g59
NtRp1092
(dp1093
g62
(dp1094
g89
g90
ssg71
g1083
sg64
(lp1095
S':'
asbag57
(g78
g59
NtRp1096
(dp1097
g62
(dp1098
sg71
g1083
sg64
(lp1099
g57
(g58
g59
NtRp1100
(dp1101
g62
(dp1102
g70
I4
ssg71
g1096
sg64
(lp1103
S'True'
p1104
asbasbasbag57
(g73
g59
NtRp1105
(dp1106
g62
(dp1107
sg71
g272
sg64
(lp1108
g57
(g78
g59
NtRp1109
(dp1110
g62
(dp1111
g82
g83
ssg71
g1105
sg64
(lp1112
S'wsgi_run_once'
p1113
asbag57
(g78
g59
NtRp1114
(dp1115
g62
(dp1116
g89
g90
ssg71
g1105
sg64
(lp1117
S':'
asbag57
(g78
g59
NtRp1118
(dp1119
g62
(dp1120
sg71
g1105
sg64
(lp1121
g57
(g58
g59
NtRp1122
(dp1123
g62
(dp1124
g70
I4
ssg71
g1118
sg64
(lp1125
g100
asbasbasbag57
(g73
g59
NtRp1126
(dp1127
g62
(dp1128
sg71
g272
sg64
(lp1129
g57
(g78
g59
NtRp1130
(dp1131
g62
(dp1132
g82
g83
ssg71
g1126
sg64
(lp1133
S'wsgi_url_scheme'
p1134
asbag57
(g78
g59
NtRp1135
(dp1136
g62
(dp1137
g89
g90
ssg71
g1126
sg64
(lp1138
S':'
asbag57
(g78
g59
NtRp1139
(dp1140
g62
(dp1141
sg71
g1126
sg64
(lp1142
g57
(g58
g59
NtRp1143
(dp1144
g62
(dp1145
g70
I4
ssg71
g1139
sg64
(lp1146
S'http'
p1147
asbasbasbag57
(g73
g59
NtRp1148
(dp1149
g62
(dp1150
sg71
g272
sg64
(lp1151
g57
(g78
g59
NtRp1152
(dp1153
g62
(dp1154
g82
g83
ssg71
g1148
sg64
(lp1155
S'wsgi_version'
p1156
asbag57
(g78
g59
NtRp1157
(dp1158
g62
(dp1159
g89
g90
ssg71
g1148
sg64
(lp1160
S':'
asbag57
(g78
g59
NtRp1161
(dp1162
g62
(dp1163
sg71
g1148
sg64
(lp1164
g57
(g58
g59
NtRp1165
(dp1166
g62
(dp1167
g70
I4
ssg71
g1161
sg64
(lp1168
g57
(g66
g59
NtRp1169
(dp1170
g62
(dp1171
g70
I3
ssg71
Nsg64
(lp1172
g57
(g73
g59
NtRp1173
(dp1174
g62
(dp1175
sg71
g1169
sg64
(lp1176
g57
(g78
g59
NtRp1177
(dp1178
g62
(dp1179
sg71
g1173
sg64
(lp1180
g57
(g58
g59
NtRp1181
(dp1182
g62
(dp1183
g70
I3
ssg71
g1177
sg64
(lp1184
S'1'
asbasbasbag57
(g73
g59
NtRp1185
(dp1186
g62
(dp1187
sg71
g1169
sg64
(lp1188
g57
(g78
g59
NtRp1189
(dp1190
g62
(dp1191
sg71
g1185
sg64
(lp1192
g57
(g58
g59
NtRp1193
(dp1194
g62
(dp1195
g70
I3
ssg71
g1189
sg64
(lp1196
S'0'
asbasbasbasbasbasbasbasbasbasbasbag57
(g73
g59
NtRp1197
(dp1198
g62
(dp1199
sg71
g67
sg64
(lp1200
g57
(g78
g59
NtRp1201
(dp1202
g62
(dp1203
g82
g83
ssg71
g1197
sg64
(lp1204
S'extension'
p1205
asbag57
(g78
g59
NtRp1206
(dp1207
g62
(dp1208
g89
g90
ssg71
g1197
sg64
(lp1209
S':'
asbag57
(g78
g59
NtRp1210
(dp1211
g62
(dp1212
sg71
g1197
sg64
(lp1213
g57
(g58
g59
NtRp1214
(dp1215
g62
(dp1216
g70
I5
ssg71
g1210
sg64
(lp1217
S'html'
p1218
asbasbasbag57
(g73
g59
NtRp1219
(dp1220
g62
(dp1221
sg71
g67
sg64
(lp1222
g57
(g78
g59
NtRp1223
(dp1224
g62
(dp1225
g82
g83
ssg71
g1219
sg64
(lp1226
S'folder'
p1227
asbag57
(g78
g59
NtRp1228
(dp1229
g62
(dp1230
g89
g90
ssg71
g1219
sg64
(lp1231
S':'
asbag57
(g78
g59
NtRp1232
(dp1233
g62
(dp1234
sg71
g1219
sg64
(lp1235
g57
(g58
g59
NtRp1236
(dp1237
g62
(dp1238
g70
I5
ssg71
g1232
sg64
(lp1239
S'/var/www/jmtws/web2py/applications/jmtws/'
p1240
asbasbasbag57
(g73
g59
NtRp1241
(dp1242
g62
(dp1243
sg71
g67
sg64
(lp1244
g57
(g78
g59
NtRp1245
(dp1246
g62
(dp1247
g82
g83
ssg71
g1241
sg64
(lp1248
S'function'
p1249
asbag57
(g78
g59
NtRp1250
(dp1251
g62
(dp1252
g89
g90
ssg71
g1241
sg64
(lp1253
S':'
asbag57
(g78
g59
NtRp1254
(dp1255
g62
(dp1256
sg71
g1241
sg64
(lp1257
g57
(g58
g59
NtRp1258
(dp1259
g62
(dp1260
g70
I5
ssg71
g1254
sg64
(lp1261
S'jmt'
p1262
asbasbasbag57
(g73
g59
NtRp1263
(dp1264
g62
(dp1265
sg71
g67
sg64
(lp1266
g57
(g78
g59
NtRp1267
(dp1268
g62
(dp1269
g82
g83
ssg71
g1263
sg64
(lp1270
S'get_vars'
p1271
asbag57
(g78
g59
NtRp1272
(dp1273
g62
(dp1274
g89
g90
ssg71
g1263
sg64
(lp1275
S':'
asbag57
(g78
g59
NtRp1276
(dp1277
g62
(dp1278
sg71
g1263
sg64
(lp1279
g57
(g58
g59
NtRp1280
(dp1281
g62
(dp1282
g70
I5
ssg71
g1276
sg64
(lp1283
g57
(g66
g59
NtRp1284
(dp1285
g62
(dp1286
g70
I4
ssg71
Nsg64
(lp1287
sbasbasbasbag57
(g73
g59
NtRp1288
(dp1289
g62
(dp1290
sg71
g67
sg64
(lp1291
g57
(g78
g59
NtRp1292
(dp1293
g62
(dp1294
g82
g83
ssg71
g1288
sg64
(lp1295
S'global_settings'
p1296
asbag57
(g78
g59
NtRp1297
(dp1298
g62
(dp1299
g89
g90
ssg71
g1288
sg64
(lp1300
S':'
asbag57
(g78
g59
NtRp1301
(dp1302
g62
(dp1303
sg71
g1288
sg64
(lp1304
g57
(g58
g59
NtRp1305
(dp1306
g62
(dp1307
g70
I5
ssg71
g1301
sg64
(lp1308
g57
(g66
g59
NtRp1309
(dp1310
g62
(dp1311
g70
I4
ssg71
Nsg64
(lp1312
g57
(g73
g59
NtRp1313
(dp1314
g62
(dp1315
sg71
g1309
sg64
(lp1316
g57
(g78
g59
NtRp1317
(dp1318
g62
(dp1319
g82
g83
ssg71
g1313
sg64
(lp1320
g284
asbag57
(g78
g59
NtRp1321
(dp1322
g62
(dp1323
g89
g90
ssg71
g1313
sg64
(lp1324
S':'
asbag57
(g78
g59
NtRp1325
(dp1326
g62
(dp1327
sg71
g1313
sg64
(lp1328
g57
(g58
g59
NtRp1329
(dp1330
g62
(dp1331
g70
I4
ssg71
g1325
sg64
(lp1332
S"set(['/var/www/jmtws/web2py/applications/jmtws/', '/var/www/jmtws/web2py/applications/admin/', '/var/www/jmtws/web2py/applications/welcome/'])"
p1333
asbasbasbag57
(g73
g59
NtRp1334
(dp1335
g62
(dp1336
sg71
g1309
sg64
(lp1337
g57
(g78
g59
NtRp1338
(dp1339
g62
(dp1340
g82
g83
ssg71
g1334
sg64
(lp1341
g306
asbag57
(g78
g59
NtRp1342
(dp1343
g62
(dp1344
g89
g90
ssg71
g1334
sg64
(lp1345
S':'
asbag57
(g78
g59
NtRp1346
(dp1347
g62
(dp1348
sg71
g1334
sg64
(lp1349
g57
(g58
g59
NtRp1350
(dp1351
g62
(dp1352
g70
I4
ssg71
g1346
sg64
(lp1353
g319
asbasbasbag57
(g73
g59
NtRp1354
(dp1355
g62
(dp1356
sg71
g1309
sg64
(lp1357
g57
(g78
g59
NtRp1358
(dp1359
g62
(dp1360
g82
g83
ssg71
g1354
sg64
(lp1361
g328
asbag57
(g78
g59
NtRp1362
(dp1363
g62
(dp1364
g89
g90
ssg71
g1354
sg64
(lp1365
S':'
asbag57
(g78
g59
NtRp1366
(dp1367
g62
(dp1368
sg71
g1354
sg64
(lp1369
g57
(g58
g59
NtRp1370
(dp1371
g62
(dp1372
g70
I4
ssg71
g1366
sg64
(lp1373
g57
(g66
g59
NtRp1374
(dp1375
g62
(dp1376
g70
I3
ssg71
Nsg64
(lp1377
sbasbasbasbag57
(g73
g59
NtRp1378
(dp1379
g62
(dp1380
sg71
g1309
sg64
(lp1381
g57
(g78
g59
NtRp1382
(dp1383
g62
(dp1384
g82
g83
ssg71
g1378
sg64
(lp1385
g353
asbag57
(g78
g59
NtRp1386
(dp1387
g62
(dp1388
g89
g90
ssg71
g1378
sg64
(lp1389
S':'
asbag57
(g78
g59
NtRp1390
(dp1391
g62
(dp1392
sg71
g1378
sg64
(lp1393
g57
(g58
g59
NtRp1394
(dp1395
g62
(dp1396
g70
I4
ssg71
g1390
sg64
(lp1397
S"<Values at 0x2b4ebd8: {'verbose': False, 'ip': '127.0.0.1', 'shutdown_timeout': 5, 'taskbar': False, 'nocron': False, 'pid_filename': 'httpserver.pid', 'maxthreads': None, 'softcron': False, 'server_name': 'JMT-webservices', 'bpython': False, 'nogui': False, 'port': 8000, 'extcron': False, 'debuglevel': 30, 'test': None, 'folder': '/var/www/jmtws/web2py', 'config': '', 'import_models': False, 'winservice': '', 'shell': None, 'run': '', 'log_filename': 'httpserver.log', 'args': [''], 'socket_timeout': 1, 'ssl_ca_certificate': None, 'scheduler': None, 'profiler_filename': None, 'ssl_private_key': '', 'password': 'admin', 'request_queue_size': 5, 'ssl_certificate': '', 'cronjob': False, 'numthreads': None, 'quiet': False, 'interfaces': None, 'minthreads': None, 'timeout': 10, 'plain': False, 'nobanner': False}>"
p1398
asbasbasbag57
(g73
g59
NtRp1399
(dp1400
g62
(dp1401
sg71
g1309
sg64
(lp1402
g57
(g78
g59
NtRp1403
(dp1404
g62
(dp1405
g82
g83
ssg71
g1399
sg64
(lp1406
g419
asbag57
(g78
g59
NtRp1407
(dp1408
g62
(dp1409
g89
g90
ssg71
g1399
sg64
(lp1410
S':'
asbag57
(g78
g59
NtRp1411
(dp1412
g62
(dp1413
sg71
g1399
sg64
(lp1414
g57
(g58
g59
NtRp1415
(dp1416
g62
(dp1417
g70
I4
ssg71
g1411
sg64
(lp1418
S'set([])'
p1419
asbasbasbag57
(g73
g59
NtRp1420
(dp1421
g62
(dp1422
sg71
g1309
sg64
(lp1423
g57
(g78
g59
NtRp1424
(dp1425
g62
(dp1426
g82
g83
ssg71
g1420
sg64
(lp1427
g441
asbag57
(g78
g59
NtRp1428
(dp1429
g62
(dp1430
g89
g90
ssg71
g1420
sg64
(lp1431
S':'
asbag57
(g78
g59
NtRp1432
(dp1433
g62
(dp1434
sg71
g1420
sg64
(lp1435
g57
(g58
g59
NtRp1436
(dp1437
g62
(dp1438
g70
I4
ssg71
g1432
sg64
(lp1439
g100
asbasbasbag57
(g73
g59
NtRp1440
(dp1441
g62
(dp1442
sg71
g1309
sg64
(lp1443
g57
(g78
g59
NtRp1444
(dp1445
g62
(dp1446
g82
g83
ssg71
g1440
sg64
(lp1447
g462
asbag57
(g78
g59
NtRp1448
(dp1449
g62
(dp1450
g89
g90
ssg71
g1440
sg64
(lp1451
S':'
asbag57
(g78
g59
NtRp1452
(dp1453
g62
(dp1454
sg71
g1440
sg64
(lp1455
g57
(g58
g59
NtRp1456
(dp1457
g62
(dp1458
g70
I4
ssg71
g1452
sg64
(lp1459
g475
asbasbasbag57
(g73
g59
NtRp1460
(dp1461
g62
(dp1462
sg71
g1309
sg64
(lp1463
g57
(g78
g59
NtRp1464
(dp1465
g62
(dp1466
g82
g83
ssg71
g1460
sg64
(lp1467
g614
asbag57
(g78
g59
NtRp1468
(dp1469
g62
(dp1470
g89
g90
ssg71
g1460
sg64
(lp1471
S':'
asbag57
(g78
g59
NtRp1472
(dp1473
g62
(dp1474
sg71
g1460
sg64
(lp1475
g57
(g58
g59
NtRp1476
(dp1477
g62
(dp1478
g70
I4
ssg71
g1472
sg64
(lp1479
g100
asbasbasbag57
(g73
g59
NtRp1480
(dp1481
g62
(dp1482
sg71
g1309
sg64
(lp1483
g57
(g78
g59
NtRp1484
(dp1485
g62
(dp1486
g82
g83
ssg71
g1480
sg64
(lp1487
g635
asbag57
(g78
g59
NtRp1488
(dp1489
g62
(dp1490
g89
g90
ssg71
g1480
sg64
(lp1491
S':'
asbag57
(g78
g59
NtRp1492
(dp1493
g62
(dp1494
sg71
g1480
sg64
(lp1495
g57
(g58
g59
NtRp1496
(dp1497
g62
(dp1498
g70
I4
ssg71
g1492
sg64
(lp1499
g100
asbasbasbag57
(g73
g59
NtRp1500
(dp1501
g62
(dp1502
sg71
g1309
sg64
(lp1503
g57
(g78
g59
NtRp1504
(dp1505
g62
(dp1506
g82
g83
ssg71
g1500
sg64
(lp1507
g873
asbag57
(g78
g59
NtRp1508
(dp1509
g62
(dp1510
g89
g90
ssg71
g1500
sg64
(lp1511
S':'
asbag57
(g78
g59
NtRp1512
(dp1513
g62
(dp1514
sg71
g1500
sg64
(lp1515
g57
(g58
g59
NtRp1516
(dp1517
g62
(dp1518
g70
I4
ssg71
g1512
sg64
(lp1519
g886
asbasbasbag57
(g73
g59
NtRp1520
(dp1521
g62
(dp1522
sg71
g1309
sg64
(lp1523
g57
(g78
g59
NtRp1524
(dp1525
g62
(dp1526
g82
g83
ssg71
g1520
sg64
(lp1527
g916
asbag57
(g78
g59
NtRp1528
(dp1529
g62
(dp1530
g89
g90
ssg71
g1520
sg64
(lp1531
S':'
asbag57
(g78
g59
NtRp1532
(dp1533
g62
(dp1534
sg71
g1520
sg64
(lp1535
g57
(g58
g59
NtRp1536
(dp1537
g62
(dp1538
g70
I4
ssg71
g1532
sg64
(lp1539
g57
(g66
g59
NtRp1540
(dp1541
g62
(dp1542
g70
I3
ssg71
Nsg64
(lp1543
g57
(g73
g59
NtRp1544
(dp1545
g62
(dp1546
sg71
g1540
sg64
(lp1547
g57
(g78
g59
NtRp1548
(dp1549
g62
(dp1550
sg71
g1544
sg64
(lp1551
g57
(g58
g59
NtRp1552
(dp1553
g62
(dp1554
g70
I3
ssg71
g1548
sg64
(lp1555
S'1'
asbasbasbag57
(g73
g59
NtRp1556
(dp1557
g62
(dp1558
sg71
g1540
sg64
(lp1559
g57
(g78
g59
NtRp1560
(dp1561
g62
(dp1562
sg71
g1556
sg64
(lp1563
g57
(g58
g59
NtRp1564
(dp1565
g62
(dp1566
g70
I3
ssg71
g1560
sg64
(lp1567
S'99'
p1568
asbasbasbag57
(g73
g59
NtRp1569
(dp1570
g62
(dp1571
sg71
g1540
sg64
(lp1572
g57
(g78
g59
NtRp1573
(dp1574
g62
(dp1575
sg71
g1569
sg64
(lp1576
g57
(g58
g59
NtRp1577
(dp1578
g62
(dp1579
g70
I3
ssg71
g1573
sg64
(lp1580
S'4'
asbasbasbag57
(g73
g59
NtRp1581
(dp1582
g62
(dp1583
sg71
g1540
sg64
(lp1584
g57
(g78
g59
NtRp1585
(dp1586
g62
(dp1587
sg71
g1581
sg64
(lp1588
g57
(g58
g59
NtRp1589
(dp1590
g62
(dp1591
g70
I3
ssg71
g1585
sg64
(lp1592
S'datetime.datetime(2011, 12, 14, 14, 46, 14)'
p1593
asbasbasbag57
(g73
g59
NtRp1594
(dp1595
g62
(dp1596
sg71
g1540
sg64
(lp1597
g57
(g78
g59
NtRp1598
(dp1599
g62
(dp1600
sg71
g1594
sg64
(lp1601
g57
(g58
g59
NtRp1602
(dp1603
g62
(dp1604
g70
I3
ssg71
g1598
sg64
(lp1605
g995
asbasbasbasbasbasbasbasbasbasbasbag57
(g73
g59
NtRp1606
(dp1607
g62
(dp1608
sg71
g67
sg64
(lp1609
g57
(g78
g59
NtRp1610
(dp1611
g62
(dp1612
g82
g83
ssg71
g1606
sg64
(lp1613
S'is_https'
p1614
asbag57
(g78
g59
NtRp1615
(dp1616
g62
(dp1617
g89
g90
ssg71
g1606
sg64
(lp1618
S':'
asbag57
(g78
g59
NtRp1619
(dp1620
g62
(dp1621
sg71
g1606
sg64
(lp1622
g57
(g58
g59
NtRp1623
(dp1624
g62
(dp1625
g70
I5
ssg71
g1619
sg64
(lp1626
g100
asbasbasbag57
(g73
g59
NtRp1627
(dp1628
g62
(dp1629
sg71
g67
sg64
(lp1630
g57
(g78
g59
NtRp1631
(dp1632
g62
(dp1633
g82
g83
ssg71
g1627
sg64
(lp1634
S'is_local'
p1635
asbag57
(g78
g59
NtRp1636
(dp1637
g62
(dp1638
g89
g90
ssg71
g1627
sg64
(lp1639
S':'
asbag57
(g78
g59
NtRp1640
(dp1641
g62
(dp1642
sg71
g1627
sg64
(lp1643
g57
(g58
g59
NtRp1644
(dp1645
g62
(dp1646
g70
I5
ssg71
g1640
sg64
(lp1647
g1104
asbasbasbag57
(g73
g59
NtRp1648
(dp1649
g62
(dp1650
sg71
g67
sg64
(lp1651
g57
(g78
g59
NtRp1652
(dp1653
g62
(dp1654
g82
g83
ssg71
g1648
sg64
(lp1655
S'is_restful'
p1656
asbag57
(g78
g59
NtRp1657
(dp1658
g62
(dp1659
g89
g90
ssg71
g1648
sg64
(lp1660
S':'
asbag57
(g78
g59
NtRp1661
(dp1662
g62
(dp1663
sg71
g1648
sg64
(lp1664
g57
(g58
g59
NtRp1665
(dp1666
g62
(dp1667
g70
I5
ssg71
g1661
sg64
(lp1668
g1104
asbasbasbag57
(g73
g59
NtRp1669
(dp1670
g62
(dp1671
sg71
g67
sg64
(lp1672
g57
(g78
g59
NtRp1673
(dp1674
g62
(dp1675
g82
g83
ssg71
g1669
sg64
(lp1676
S'now'
p1677
asbag57
(g78
g59
NtRp1678
(dp1679
g62
(dp1680
g89
g90
ssg71
g1669
sg64
(lp1681
S':'
asbag57
(g78
g59
NtRp1682
(dp1683
g62
(dp1684
sg71
g1669
sg64
(lp1685
g57
(g58
g59
NtRp1686
(dp1687
g62
(dp1688
g70
I5
ssg71
g1682
sg64
(lp1689
S'datetime.datetime(2011, 12, 23, 9, 34, 20, 120247)'
p1690
asbasbasbag57
(g73
g59
NtRp1691
(dp1692
g62
(dp1693
sg71
g67
sg64
(lp1694
g57
(g78
g59
NtRp1695
(dp1696
g62
(dp1697
g82
g83
ssg71
g1691
sg64
(lp1698
S'post_vars'
p1699
asbag57
(g78
g59
NtRp1700
(dp1701
g62
(dp1702
g89
g90
ssg71
g1691
sg64
(lp1703
S':'
asbag57
(g78
g59
NtRp1704
(dp1705
g62
(dp1706
sg71
g1691
sg64
(lp1707
g57
(g58
g59
NtRp1708
(dp1709
g62
(dp1710
g70
I5
ssg71
g1704
sg64
(lp1711
g57
(g66
g59
NtRp1712
(dp1713
g62
(dp1714
g70
I4
ssg71
Nsg64
(lp1715
g57
(g73
g59
NtRp1716
(dp1717
g62
(dp1718
sg71
g1712
sg64
(lp1719
g57
(g78
g59
NtRp1720
(dp1721
g62
(dp1722
g82
g83
ssg71
g1716
sg64
(lp1723
S'model'
p1724
asbag57
(g78
g59
NtRp1725
(dp1726
g62
(dp1727
g89
g90
ssg71
g1716
sg64
(lp1728
S':'
asbag57
(g78
g59
NtRp1729
(dp1730
g62
(dp1731
sg71
g1716
sg64
(lp1732
g57
(g58
g59
NtRp1733
(dp1734
g62
(dp1735
g70
I4
ssg71
g1729
sg64
(lp1736
S'<?xml version="1.0" encoding="UTF-8" standalone="no"?><model xmlns:xsi="http://www.w3.org/2001/XMLSchema-instance" xsi:noNamespaceSchemaLocation="JMTmodel.xsd"><description><![CDATA[This is a simple example showing how a M/M/1 queue can be specified and solved by JMVA.]]></description><parameters><classes number="1"><openclass name="Class1" rate="9.0"/></classes><stations number="1"><listation name="Server LI" servers="1"><servicetimes><servicetime customerclass="Class1">0.1</servicetime></servicetimes><visits><visit customerclass="Class1">1.0</visit></visits></listation></stations></parameters><solutions ok="true" solutionMethod="analytical"><stationresults station="Server LI"><classresults customerclass="Class1"><measure meanValue="9.000000000000002" measureType="Number of Customers" successful="true"/><measure meanValue="9.0" measureType="Throughput" successful="true"/><measure meanValue="1.0000000000000002" measureType="Residence time" successful="true"/><measure meanValue="0.9" measureType="Utilization" successful="true"/></classresults></stationresults></solutions></model>'
p1737
asbasbasbasbasbasbasbag57
(g73
g59
NtRp1738
(dp1739
g62
(dp1740
sg71
g67
sg64
(lp1741
g57
(g78
g59
NtRp1742
(dp1743
g62
(dp1744
g82
g83
ssg71
g1738
sg64
(lp1745
S'raw_args'
p1746
asbag57
(g78
g59
NtRp1747
(dp1748
g62
(dp1749
g89
g90
ssg71
g1738
sg64
(lp1750
S':'
asbag57
(g78
g59
NtRp1751
(dp1752
g62
(dp1753
sg71
g1738
sg64
(lp1754
g57
(g58
g59
NtRp1755
(dp1756
g62
(dp1757
g70
I5
ssg71
g1751
sg64
(lp1758
g159
asbasbasbag57
(g73
g59
NtRp1759
(dp1760
g62
(dp1761
sg71
g67
sg64
(lp1762
g57
(g78
g59
NtRp1763
(dp1764
g62
(dp1765
g82
g83
ssg71
g1759
sg64
(lp1766
S'url'
p1767
asbag57
(g78
g59
NtRp1768
(dp1769
g62
(dp1770
g89
g90
ssg71
g1759
sg64
(lp1771
S':'
asbag57
(g78
g59
NtRp1772
(dp1773
g62
(dp1774
sg71
g1759
sg64
(lp1775
g57
(g58
g59
NtRp1776
(dp1777
g62
(dp1778
g70
I5
ssg71
g1772
sg64
(lp1779
S'/jmtws/default/jmt/mva'
p1780
asbasbasbag57
(g73
g59
NtRp1781
(dp1782
g62
(dp1783
sg71
g67
sg64
(lp1784
g57
(g78
g59
NtRp1785
(dp1786
g62
(dp1787
g82
g83
ssg71
g1781
sg64
(lp1788
S'utcnow'
p1789
asbag57
(g78
g59
NtRp1790
(dp1791
g62
(dp1792
g89
g90
ssg71
g1781
sg64
(lp1793
S':'
asbag57
(g78
g59
NtRp1794
(dp1795
g62
(dp1796
sg71
g1781
sg64
(lp1797
g57
(g58
g59
NtRp1798
(dp1799
g62
(dp1800
g70
I5
ssg71
g1794
sg64
(lp1801
S'datetime.datetime(2011, 12, 23, 8, 34, 20, 120265)'
p1802
asbasbasbag57
(g73
g59
NtRp1803
(dp1804
g62
(dp1805
sg71
g67
sg64
(lp1806
g57
(g78
g59
NtRp1807
(dp1808
g62
(dp1809
g82
g83
ssg71
g1803
sg64
(lp1810
S'uuid'
p1811
asbag57
(g78
g59
NtRp1812
(dp1813
g62
(dp1814
g89
g90
ssg71
g1803
sg64
(lp1815
S':'
asbag57
(g78
g59
NtRp1816
(dp1817
g62
(dp1818
sg71
g1803
sg64
(lp1819
g57
(g58
g59
NtRp1820
(dp1821
g62
(dp1822
g70
I5
ssg71
g1816
sg64
(lp1823
S'jmtws/127.0.0.1.2011-12-23.09-34-20.f7952ed8-c7c5-445f-bd1e-a55e503ba7f8'
p1824
asbasbasbag57
(g73
g59
NtRp1825
(dp1826
g62
(dp1827
sg71
g67
sg64
(lp1828
g57
(g78
g59
NtRp1829
(dp1830
g62
(dp1831
g82
g83
ssg71
g1825
sg64
(lp1832
S'vars'
p1833
asbag57
(g78
g59
NtRp1834
(dp1835
g62
(dp1836
g89
g90
ssg71
g1825
sg64
(lp1837
S':'
asbag57
(g78
g59
NtRp1838
(dp1839
g62
(dp1840
sg71
g1825
sg64
(lp1841
g57
(g58
g59
NtRp1842
(dp1843
g62
(dp1844
g70
I5
ssg71
g1838
sg64
(lp1845
g57
(g66
g59
NtRp1846
(dp1847
g62
(dp1848
g70
I4
ssg71
Nsg64
(lp1849
g57
(g73
g59
NtRp1850
(dp1851
g62
(dp1852
sg71
g1846
sg64
(lp1853
g57
(g78
g59
NtRp1854
(dp1855
g62
(dp1856
g82
g83
ssg71
g1850
sg64
(lp1857
g1724
asbag57
(g78
g59
NtRp1858
(dp1859
g62
(dp1860
g89
g90
ssg71
g1850
sg64
(lp1861
S':'
asbag57
(g78
g59
NtRp1862
(dp1863
g62
(dp1864
sg71
g1850
sg64
(lp1865
g57
(g58
g59
NtRp1866
(dp1867
g62
(dp1868
g70
I4
ssg71
g1862
sg64
(lp1869
g1737
asbasbasbasbasbasbasbag57
(g73
g59
NtRp1870
(dp1871
g62
(dp1872
sg71
g67
sg64
(lp1873
g57
(g78
g59
NtRp1874
(dp1875
g62
(dp1876
g82
g83
ssg71
g1870
sg64
(lp1877
S'wsgi'
p1878
asbag57
(g78
g59
NtRp1879
(dp1880
g62
(dp1881
g89
g90
ssg71
g1870
sg64
(lp1882
S':'
asbag57
(g78
g59
NtRp1883
(dp1884
g62
(dp1885
sg71
g1870
sg64
(lp1886
g57
(g58
g59
NtRp1887
(dp1888
g62
(dp1889
g70
I5
ssg71
g1883
sg64
(lp1890
g57
(g66
g59
NtRp1891
(dp1892
g62
(dp1893
g70
I4
ssg71
Nsg64
(lp1894
g57
(g73
g59
NtRp1895
(dp1896
g62
(dp1897
sg71
g1891
sg64
(lp1898
g57
(g78
g59
NtRp1899
(dp1900
g62
(dp1901
g82
g83
ssg71
g1895
sg64
(lp1902
S'environ'
p1903
asbag57
(g78
g59
NtRp1904
(dp1905
g62
(dp1906
g89
g90
ssg71
g1895
sg64
(lp1907
S':'
asbag57
(g78
g59
NtRp1908
(dp1909
g62
(dp1910
sg71
g1895
sg64
(lp1911
g57
(g58
g59
NtRp1912
(dp1913
g62
(dp1914
g70
I4
ssg71
g1908
sg64
(lp1915
g57
(g66
g59
NtRp1916
(dp1917
g62
(dp1918
g70
I3
ssg71
Nsg64
(lp1919
g57
(g73
g59
NtRp1920
(dp1921
g62
(dp1922
sg71
g1916
sg64
(lp1923
g57
(g78
g59
NtRp1924
(dp1925
g62
(dp1926
g82
g83
ssg71
g1920
sg64
(lp1927
S'CONTENT_LENGTH'
p1928
asbag57
(g78
g59
NtRp1929
(dp1930
g62
(dp1931
g89
g90
ssg71
g1920
sg64
(lp1932
S':'
asbag57
(g78
g59
NtRp1933
(dp1934
g62
(dp1935
sg71
g1920
sg64
(lp1936
g57
(g58
g59
NtRp1937
(dp1938
g62
(dp1939
g70
I3
ssg71
g1933
sg64
(lp1940
g388
asbasbasbag57
(g73
g59
NtRp1941
(dp1942
g62
(dp1943
sg71
g1916
sg64
(lp1944
g57
(g78
g59
NtRp1945
(dp1946
g62
(dp1947
g82
g83
ssg71
g1941
sg64
(lp1948
S'CONTENT_TYPE'
p1949
asbag57
(g78
g59
NtRp1950
(dp1951
g62
(dp1952
g89
g90
ssg71
g1941
sg64
(lp1953
S':'
asbag57
(g78
g59
NtRp1954
(dp1955
g62
(dp1956
sg71
g1941
sg64
(lp1957
g57
(g58
g59
NtRp1958
(dp1959
g62
(dp1960
g70
I3
ssg71
g1954
sg64
(lp1961
g410
asbasbasbag57
(g73
g59
NtRp1962
(dp1963
g62
(dp1964
sg71
g1916
sg64
(lp1965
g57
(g78
g59
NtRp1966
(dp1967
g62
(dp1968
g82
g83
ssg71
g1962
sg64
(lp1969
S'HTTP_ACCEPT'
p1970
asbag57
(g78
g59
NtRp1971
(dp1972
g62
(dp1973
g89
g90
ssg71
g1962
sg64
(lp1974
S':'
asbag57
(g78
g59
NtRp1975
(dp1976
g62
(dp1977
sg71
g1962
sg64
(lp1978
g57
(g58
g59
NtRp1979
(dp1980
g62
(dp1981
g70
I3
ssg71
g1975
sg64
(lp1982
g497
asbasbasbag57
(g73
g59
NtRp1983
(dp1984
g62
(dp1985
sg71
g1916
sg64
(lp1986
g57
(g78
g59
NtRp1987
(dp1988
g62
(dp1989
g82
g83
ssg71
g1983
sg64
(lp1990
S'HTTP_CONTENT_LENGTH'
p1991
asbag57
(g78
g59
NtRp1992
(dp1993
g62
(dp1994
g89
g90
ssg71
g1983
sg64
(lp1995
S':'
asbag57
(g78
g59
NtRp1996
(dp1997
g62
(dp1998
sg71
g1983
sg64
(lp1999
g57
(g58
g59
NtRp2000
(dp2001
g62
(dp2002
g70
I3
ssg71
g1996
sg64
(lp2003
g388
asbasbasbag57
(g73
g59
NtRp2004
(dp2005
g62
(dp2006
sg71
g1916
sg64
(lp2007
g57
(g78
g59
NtRp2008
(dp2009
g62
(dp2010
g82
g83
ssg71
g2004
sg64
(lp2011
S'HTTP_CONTENT_TYPE'
p2012
asbag57
(g78
g59
NtRp2013
(dp2014
g62
(dp2015
g89
g90
ssg71
g2004
sg64
(lp2016
S':'
asbag57
(g78
g59
NtRp2017
(dp2018
g62
(dp2019
sg71
g2004
sg64
(lp2020
g57
(g58
g59
NtRp2021
(dp2022
g62
(dp2023
g70
I3
ssg71
g2017
sg64
(lp2024
g410
asbasbasbag57
(g73
g59
NtRp2025
(dp2026
g62
(dp2027
sg71
g1916
sg64
(lp2028
g57
(g78
g59
NtRp2029
(dp2030
g62
(dp2031
g82
g83
ssg71
g2025
sg64
(lp2032
S'HTTP_EXPECT'
p2033
asbag57
(g78
g59
NtRp2034
(dp2035
g62
(dp2036
g89
g90
ssg71
g2025
sg64
(lp2037
S':'
asbag57
(g78
g59
NtRp2038
(dp2039
g62
(dp2040
sg71
g2025
sg64
(lp2041
g57
(g58
g59
NtRp2042
(dp2043
g62
(dp2044
g70
I3
ssg71
g2038
sg64
(lp2045
g561
asbasbasbag57
(g73
g59
NtRp2046
(dp2047
g62
(dp2048
sg71
g1916
sg64
(lp2049
g57
(g78
g59
NtRp2050
(dp2051
g62
(dp2052
g82
g83
ssg71
g2046
sg64
(lp2053
S'HTTP_HOST'
p2054
asbag57
(g78
g59
NtRp2055
(dp2056
g62
(dp2057
g89
g90
ssg71
g2046
sg64
(lp2058
S':'
asbag57
(g78
g59
NtRp2059
(dp2060
g62
(dp2061
sg71
g2046
sg64
(lp2062
g57
(g58
g59
NtRp2063
(dp2064
g62
(dp2065
g70
I3
ssg71
g2059
sg64
(lp2066
g583
asbasbasbag57
(g73
g59
NtRp2067
(dp2068
g62
(dp2069
sg71
g1916
sg64
(lp2070
g57
(g78
g59
NtRp2071
(dp2072
g62
(dp2073
g82
g83
ssg71
g2067
sg64
(lp2074
S'HTTP_USER_AGENT'
p2075
asbag57
(g78
g59
NtRp2076
(dp2077
g62
(dp2078
g89
g90
ssg71
g2067
sg64
(lp2079
S':'
asbag57
(g78
g59
NtRp2080
(dp2081
g62
(dp2082
sg71
g2067
sg64
(lp2083
g57
(g58
g59
NtRp2084
(dp2085
g62
(dp2086
g70
I3
ssg71
g2080
sg64
(lp2087
g605
asbasbasbag57
(g73
g59
NtRp2088
(dp2089
g62
(dp2090
sg71
g1916
sg64
(lp2091
g57
(g78
g59
NtRp2092
(dp2093
g62
(dp2094
g82
g83
ssg71
g2088
sg64
(lp2095
S'PATH_INFO'
p2096
asbag57
(g78
g59
NtRp2097
(dp2098
g62
(dp2099
g89
g90
ssg71
g2088
sg64
(lp2100
S':'
asbag57
(g78
g59
NtRp2101
(dp2102
g62
(dp2103
sg71
g2088
sg64
(lp2104
g57
(g58
g59
NtRp2105
(dp2106
g62
(dp2107
g70
I3
ssg71
g2101
sg64
(lp2108
g669
asbasbasbag57
(g73
g59
NtRp2109
(dp2110
g62
(dp2111
sg71
g1916
sg64
(lp2112
g57
(g78
g59
NtRp2113
(dp2114
g62
(dp2115
g82
g83
ssg71
g2109
sg64
(lp2116
S'QUERY_STRING'
p2117
asbag57
(g78
g59
NtRp2118
(dp2119
g62
(dp2120
g89
g90
ssg71
g2109
sg64
(lp2121
S':'
asbag57
(g78
g59
NtRp2122
(dp2123
g62
(dp2124
sg71
g2109
sg64
(lp2125
g57
(g58
g59
NtRp2126
(dp2127
g62
(dp2128
g70
I3
ssg71
g2122
sg64
(lp2129
S''
asbasbasbag57
(g73
g59
NtRp2130
(dp2131
g62
(dp2132
sg71
g1916
sg64
(lp2133
g57
(g78
g59
NtRp2134
(dp2135
g62
(dp2136
g82
g83
ssg71
g2130
sg64
(lp2137
S'REMOTE_ADDR'
p2138
asbag57
(g78
g59
NtRp2139
(dp2140
g62
(dp2141
g89
g90
ssg71
g2130
sg64
(lp2142
S':'
asbag57
(g78
g59
NtRp2143
(dp2144
g62
(dp2145
sg71
g2130
sg64
(lp2146
g57
(g58
g59
NtRp2147
(dp2148
g62
(dp2149
g70
I3
ssg71
g2143
sg64
(lp2150
g203
asbasbasbag57
(g73
g59
NtRp2151
(dp2152
g62
(dp2153
sg71
g1916
sg64
(lp2154
g57
(g78
g59
NtRp2155
(dp2156
g62
(dp2157
g82
g83
ssg71
g2151
sg64
(lp2158
S'REMOTE_PORT'
p2159
asbag57
(g78
g59
NtRp2160
(dp2161
g62
(dp2162
g89
g90
ssg71
g2151
sg64
(lp2163
S':'
asbag57
(g78
g59
NtRp2164
(dp2165
g62
(dp2166
sg71
g2151
sg64
(lp2167
g57
(g58
g59
NtRp2168
(dp2169
g62
(dp2170
g70
I3
ssg71
g2164
sg64
(lp2171
g733
asbasbasbag57
(g73
g59
NtRp2172
(dp2173
g62
(dp2174
sg71
g1916
sg64
(lp2175
g57
(g78
g59
NtRp2176
(dp2177
g62
(dp2178
g82
g83
ssg71
g2172
sg64
(lp2179
S'REQUEST_METHOD'
p2180
asbag57
(g78
g59
NtRp2181
(dp2182
g62
(dp2183
g89
g90
ssg71
g2172
sg64
(lp2184
S':'
asbag57
(g78
g59
NtRp2185
(dp2186
g62
(dp2187
sg71
g2172
sg64
(lp2188
g57
(g58
g59
NtRp2189
(dp2190
g62
(dp2191
g70
I3
ssg71
g2185
sg64
(lp2192
g755
asbasbasbag57
(g73
g59
NtRp2193
(dp2194
g62
(dp2195
sg71
g1916
sg64
(lp2196
g57
(g78
g59
NtRp2197
(dp2198
g62
(dp2199
g82
g83
ssg71
g2193
sg64
(lp2200
S'SCRIPT_NAME'
p2201
asbag57
(g78
g59
NtRp2202
(dp2203
g62
(dp2204
g89
g90
ssg71
g2193
sg64
(lp2205
S':'
asbag57
(g78
g59
NtRp2206
(dp2207
g62
(dp2208
sg71
g2193
sg64
(lp2209
g57
(g58
g59
NtRp2210
(dp2211
g62
(dp2212
g70
I3
ssg71
g2206
sg64
(lp2213
S''
asbasbasbag57
(g73
g59
NtRp2214
(dp2215
g62
(dp2216
sg71
g1916
sg64
(lp2217
g57
(g78
g59
NtRp2218
(dp2219
g62
(dp2220
g82
g83
ssg71
g2214
sg64
(lp2221
S'SERVER_NAME'
p2222
asbag57
(g78
g59
NtRp2223
(dp2224
g62
(dp2225
g89
g90
ssg71
g2214
sg64
(lp2226
S':'
asbag57
(g78
g59
NtRp2227
(dp2228
g62
(dp2229
sg71
g2214
sg64
(lp2230
g57
(g58
g59
NtRp2231
(dp2232
g62
(dp2233
g70
I3
ssg71
g2227
sg64
(lp2234
g798
asbasbasbag57
(g73
g59
NtRp2235
(dp2236
g62
(dp2237
sg71
g1916
sg64
(lp2238
g57
(g78
g59
NtRp2239
(dp2240
g62
(dp2241
g82
g83
ssg71
g2235
sg64
(lp2242
S'SERVER_PORT'
p2243
asbag57
(g78
g59
NtRp2244
(dp2245
g62
(dp2246
g89
g90
ssg71
g2235
sg64
(lp2247
S':'
asbag57
(g78
g59
NtRp2248
(dp2249
g62
(dp2250
sg71
g2235
sg64
(lp2251
g57
(g58
g59
NtRp2252
(dp2253
g62
(dp2254
g70
I3
ssg71
g2248
sg64
(lp2255
g820
asbasbasbag57
(g73
g59
NtRp2256
(dp2257
g62
(dp2258
sg71
g1916
sg64
(lp2259
g57
(g78
g59
NtRp2260
(dp2261
g62
(dp2262
g82
g83
ssg71
g2256
sg64
(lp2263
S'SERVER_PROTOCOL'
p2264
asbag57
(g78
g59
NtRp2265
(dp2266
g62
(dp2267
g89
g90
ssg71
g2256
sg64
(lp2268
S':'
asbag57
(g78
g59
NtRp2269
(dp2270
g62
(dp2271
sg71
g2256
sg64
(lp2272
g57
(g58
g59
NtRp2273
(dp2274
g62
(dp2275
g70
I3
ssg71
g2269
sg64
(lp2276
g842
asbasbasbag57
(g73
g59
NtRp2277
(dp2278
g62
(dp2279
sg71
g1916
sg64
(lp2280
g57
(g78
g59
NtRp2281
(dp2282
g62
(dp2283
g82
g83
ssg71
g2277
sg64
(lp2284
S'SERVER_SOFTWARE'
p2285
asbag57
(g78
g59
NtRp2286
(dp2287
g62
(dp2288
g89
g90
ssg71
g2277
sg64
(lp2289
S':'
asbag57
(g78
g59
NtRp2290
(dp2291
g62
(dp2292
sg71
g2277
sg64
(lp2293
g57
(g58
g59
NtRp2294
(dp2295
g62
(dp2296
g70
I3
ssg71
g2290
sg64
(lp2297
g864
asbasbasbag57
(g73
g59
NtRp2298
(dp2299
g62
(dp2300
sg71
g1916
sg64
(lp2301
g57
(g78
g59
NtRp2302
(dp2303
g62
(dp2304
g82
g83
ssg71
g2298
sg64
(lp2305
S'wsgi.errors'
p2306
asbag57
(g78
g59
NtRp2307
(dp2308
g62
(dp2309
g89
g90
ssg71
g2298
sg64
(lp2310
S':'
asbag57
(g78
g59
NtRp2311
(dp2312
g62
(dp2313
sg71
g2298
sg64
(lp2314
g57
(g58
g59
NtRp2315
(dp2316
g62
(dp2317
g70
I3
ssg71
g2311
sg64
(lp2318
S"<open file '<stderr>', mode 'w' at 0x7ff085940270>"
p2319
asbasbasbag57
(g73
g59
NtRp2320
(dp2321
g62
(dp2322
sg71
g1916
sg64
(lp2323
g57
(g78
g59
NtRp2324
(dp2325
g62
(dp2326
g82
g83
ssg71
g2320
sg64
(lp2327
S'wsgi.file_wrapper'
p2328
asbag57
(g78
g59
NtRp2329
(dp2330
g62
(dp2331
g89
g90
ssg71
g2320
sg64
(lp2332
S':'
asbag57
(g78
g59
NtRp2333
(dp2334
g62
(dp2335
sg71
g2320
sg64
(lp2336
g57
(g58
g59
NtRp2337
(dp2338
g62
(dp2339
g70
I3
ssg71
g2333
sg64
(lp2340
S'<class wsgiref.util.FileWrapper at 0x2a8b4c8>'
p2341
asbasbasbag57
(g73
g59
NtRp2342
(dp2343
g62
(dp2344
sg71
g1916
sg64
(lp2345
g57
(g78
g59
NtRp2346
(dp2347
g62
(dp2348
g82
g83
ssg71
g2342
sg64
(lp2349
S'wsgi.input'
p2350
asbag57
(g78
g59
NtRp2351
(dp2352
g62
(dp2353
g89
g90
ssg71
g2342
sg64
(lp2354
S':'
asbag57
(g78
g59
NtRp2355
(dp2356
g62
(dp2357
sg71
g2342
sg64
(lp2358
g57
(g58
g59
NtRp2359
(dp2360
g62
(dp2361
g70
I3
ssg71
g2355
sg64
(lp2362
S"<open file '<fdopen>', mode 'w+b' at 0x33808a0>"
p2363
asbasbasbag57
(g73
g59
NtRp2364
(dp2365
g62
(dp2366
sg71
g1916
sg64
(lp2367
g57
(g78
g59
NtRp2368
(dp2369
g62
(dp2370
g82
g83
ssg71
g2364
sg64
(lp2371
S'wsgi.multiprocess'
p2372
asbag57
(g78
g59
NtRp2373
(dp2374
g62
(dp2375
g89
g90
ssg71
g2364
sg64
(lp2376
S':'
asbag57
(g78
g59
NtRp2377
(dp2378
g62
(dp2379
sg71
g2364
sg64
(lp2380
g57
(g58
g59
NtRp2381
(dp2382
g62
(dp2383
g70
I3
ssg71
g2377
sg64
(lp2384
g100
asbasbasbag57
(g73
g59
NtRp2385
(dp2386
g62
(dp2387
sg71
g1916
sg64
(lp2388
g57
(g78
g59
NtRp2389
(dp2390
g62
(dp2391
g82
g83
ssg71
g2385
sg64
(lp2392
S'wsgi.multithread'
p2393
asbag57
(g78
g59
NtRp2394
(dp2395
g62
(dp2396
g89
g90
ssg71
g2385
sg64
(lp2397
S':'
asbag57
(g78
g59
NtRp2398
(dp2399
g62
(dp2400
sg71
g2385
sg64
(lp2401
g57
(g58
g59
NtRp2402
(dp2403
g62
(dp2404
g70
I3
ssg71
g2398
sg64
(lp2405
g1104
asbasbasbag57
(g73
g59
NtRp2406
(dp2407
g62
(dp2408
sg71
g1916
sg64
(lp2409
g57
(g78
g59
NtRp2410
(dp2411
g62
(dp2412
g82
g83
ssg71
g2406
sg64
(lp2413
S'wsgi.run_once'
p2414
asbag57
(g78
g59
NtRp2415
(dp2416
g62
(dp2417
g89
g90
ssg71
g2406
sg64
(lp2418
S':'
asbag57
(g78
g59
NtRp2419
(dp2420
g62
(dp2421
sg71
g2406
sg64
(lp2422
g57
(g58
g59
NtRp2423
(dp2424
g62
(dp2425
g70
I3
ssg71
g2419
sg64
(lp2426
g100
asbasbasbag57
(g73
g59
NtRp2427
(dp2428
g62
(dp2429
sg71
g1916
sg64
(lp2430
g57
(g78
g59
NtRp2431
(dp2432
g62
(dp2433
g82
g83
ssg71
g2427
sg64
(lp2434
S'wsgi.url_scheme'
p2435
asbag57
(g78
g59
NtRp2436
(dp2437
g62
(dp2438
g89
g90
ssg71
g2427
sg64
(lp2439
S':'
asbag57
(g78
g59
NtRp2440
(dp2441
g62
(dp2442
sg71
g2427
sg64
(lp2443
g57
(g58
g59
NtRp2444
(dp2445
g62
(dp2446
g70
I3
ssg71
g2440
sg64
(lp2447
g1147
asbasbasbag57
(g73
g59
NtRp2448
(dp2449
g62
(dp2450
sg71
g1916
sg64
(lp2451
g57
(g78
g59
NtRp2452
(dp2453
g62
(dp2454
g82
g83
ssg71
g2448
sg64
(lp2455
S'wsgi.version'
p2456
asbag57
(g78
g59
NtRp2457
(dp2458
g62
(dp2459
g89
g90
ssg71
g2448
sg64
(lp2460
S':'
asbag57
(g78
g59
NtRp2461
(dp2462
g62
(dp2463
sg71
g2448
sg64
(lp2464
g57
(g58
g59
NtRp2465
(dp2466
g62
(dp2467
g70
I3
ssg71
g2461
sg64
(lp2468
S'1'
asbasbasbasbasbasbasbasbasbasbasbasbasbsS'frames'
p2469
(lp2470
(dp2471
S'file'
p2472
S'/var/www/jmtws/web2py/gluon/restricted.py'
p2473
sS'dump'
p2474
(dp2475
S'environment'
p2476
S"{'A': <class 'gluon.html.A'>, 'Auth': <class 'gluon.tools.Auth'>, 'B': <class 'gluon.html.B'>, 'BEAUTIFY': <class 'gluon.html.BEAUTIFY'>, 'BODY': <class 'gluon.html.BODY'>, 'BR': <class 'gluon.html.BR'>, 'BUTTON': <class 'gluon.html.BUTTON'>, 'CAT': <class 'gluon.html.CAT'>, 'CENTER': <class 'gluon.html.CENTER'>, 'CLEANUP': <class 'gluon.validators.CLEANUP'>, ...}"
p2477
sS'ccode'
p2478
S'<code object <module> at 0x335e030, file "/var/w...lications/jmtws/controllers/default.py", line 20>'
p2479
ssS'lnum'
p2480
I204
sS'lines'
p2481
(dp2482
I199
S'    try:'
p2483
sI200
S'        if type(code) == types.CodeType:'
p2484
sI201
S'            ccode = code'
p2485
sI202
S'        else:'
p2486
sI203
S'            ccode = compile2(code,layer)'
p2487
sI204
S'        exec ccode in environment'
p2488
sI205
S'    except HTTP:'
p2489
sI206
S'        raise'
p2490
sI207
S'    except RestrictedError:'
p2491
sI208
S'        # do not encapsulate (obfuscate) the original RestrictedError'
p2492
ssS'call'
p2493
S"(code='# -*- coding: utf-8 -*-\\n# this file is released ...rm=crud())\\n\\nresponse._vars=response._caller(jmt)\\n', environment={'A': <class 'gluon.html.A'>, 'Auth': <class 'gluon.tools.Auth'>, 'B': <class 'gluon.html.B'>, 'BEAUTIFY': <class 'gluon.html.BEAUTIFY'>, 'BODY': <class 'gluon.html.BODY'>, 'BR': <class 'gluon.html.BR'>, 'BUTTON': <class 'gluon.html.BUTTON'>, 'CAT': <class 'gluon.html.CAT'>, 'CENTER': <class 'gluon.html.CENTER'>, 'CLEANUP': <class 'gluon.validators.CLEANUP'>, ...}, layer='/var/www/jmtws/web2py/applications/jmtws/controllers/default.py')"
p2494
sS'func'
p2495
S'restricted'
p2496
sa(dp2497
g2472
S'/var/www/jmtws/web2py/applications/jmtws/controllers/default.py'
p2498
sg2474
(dp2499
sg2480
I112
sg2481
(dp2500
I101
S'    http://..../[app]/default/data/update/[table]/[id]'
p2501
sI102
S'    http://..../[app]/default/data/delete/[table]/[id]'
p2502
sI103
S'    http://..../[app]/default/data/select/[table]'
p2503
sI104
S'    http://..../[app]/default/data/search/[table]'
p2504
sI105
S'    but URLs must be signed, i.e. linked with'
p2505
sI106
S"      A('table',_href=URL('data/tables',user_signature=True))"
p2506
sI107
S'    or with the signed load operator'
p2507
sI108
S"      LOAD('default','data.load',args='tables',ajax=True,user_signature=True)"
p2508
sI109
S'    """'
p2509
sI110
S'    return dict(form=crud())'
p2510
ssg2493
S'()'
p2511
sg2495
S'<module>'
p2512
sa(dp2513
g2472
S'/var/www/jmtws/web2py/gluon/globals.py'
p2514
sg2474
(dp2515
S'self'
p2516
S'undefined'
p2517
sS'f'
S'<function jmt>'
p2518
ssg2480
I172
sg2481
(dp2519
I167
S'        self.meta = Storage()      # used by web2py_ajax.html'
p2520
sI168
S'        self.menu = []             # used by the default view layout'
p2521
sI169
S'        self.files = []            # used by web2py_ajax.html'
p2522
sI170
S'        self.generic_patterns = [] # patterns to allow generic views'
p2523
sI171
S'        self._vars = None'
p2524
sI172
S'        self._caller = lambda f: f()'
p2525
sI173
S'        self._view_environment = None'
p2526
sI174
S'        self._custom_commit = None'
p2527
sI175
S'        self._custom_rollback = None'
p2528
sI176
S''
ssg2493
S'(f=<function jmt>)'
p2529
sg2495
S'<lambda>'
p2530
sa(dp2531
g2472
S'/var/www/jmtws/web2py/gluon/globals.py'
p2532
sg2474
(dp2533
S'e'
S'TypeError("__init__() got an unexpected keyword argument \'output\'",)'
p2534
ssg2480
I144
sg2481
(dp2535
I139
S'                except TypeError, e:'
p2536
sI140
S'                    exc_type, exc_value, exc_traceback = sys.exc_info()'
p2537
sI141
S'                    if len(traceback.extract_tb(exc_traceback))==1:'
p2538
sI142
S'                        raise HTTP(400,"invalid arguments")'
p2539
sI143
S'                    else:'
p2540
sI144
S'                        raise e'
p2541
sI145
S'            f.__doc__ = action.__doc__'
p2542
sI146
S'            f.__name__ = action.__name__'
p2543
sI147
S'            return f'
p2544
sI148
S'        return wrapper'
p2545
ssg2493
S"(_action=<function jmt>, _self=<Storage {'body': <open file '<fdopen>', mode 'w...esults></stationresults></solutions></model>'}>}>, *a=(), **b={})"
p2546
sg2495
S'f'
sasS'pyver'
p2547
S'Python 2.7.2+: /usr/bin/python'
p2548
sS'session'
p2549
g57
(g58
g59
NtRp2550
(dp2551
g62
(dp2552
sg64
(lp2553
g57
(g66
g59
NtRp2554
(dp2555
g62
(dp2556
g70
I5
ssg71
Nsg64
(lp2557
sbasbsS'etype'
p2558
S"<type 'exceptions.TypeError'>"
p2559
sS'date'
p2560
S'Fri Dec 23 09:34:20 2011'
p2561
sS'response'
p2562
g57
(g58
g59
NtRp2563
(dp2564
g62
(dp2565
sg64
(lp2566
g57
(g66
g59
NtRp2567
(dp2568
g62
(dp2569
g70
I5
ssg71
Nsg64
(lp2570
g57
(g73
g59
NtRp2571
(dp2572
g62
(dp2573
sg71
g2567
sg64
(lp2574
g57
(g78
g59
NtRp2575
(dp2576
g62
(dp2577
g82
g83
ssg71
g2571
sg64
(lp2578
g168
asbag57
(g78
g59
NtRp2579
(dp2580
g62
(dp2581
g89
g90
ssg71
g2571
sg64
(lp2582
S':'
asbag57
(g78
g59
NtRp2583
(dp2584
g62
(dp2585
sg71
g2571
sg64
(lp2586
g57
(g58
g59
NtRp2587
(dp2588
g62
(dp2589
g70
I5
ssg71
g2583
sg64
(lp2590
S'<cStringIO.StringO object at 0x3d3a9d0>'
p2591
asbasbasbag57
(g73
g59
NtRp2592
(dp2593
g62
(dp2594
sg71
g2567
sg64
(lp2595
g57
(g78
g59
NtRp2596
(dp2597
g62
(dp2598
g82
g83
ssg71
g2592
sg64
(lp2599
g234
asbag57
(g78
g59
NtRp2600
(dp2601
g62
(dp2602
g89
g90
ssg71
g2592
sg64
(lp2603
S':'
asbag57
(g78
g59
NtRp2604
(dp2605
g62
(dp2606
sg71
g2592
sg64
(lp2607
g57
(g58
g59
NtRp2608
(dp2609
g62
(dp2610
g70
I5
ssg71
g2604
sg64
(lp2611
g57
(g66
g59
NtRp2612
(dp2613
g62
(dp2614
g70
I4
ssg71
Nsg64
(lp2615
g57
(g73
g59
NtRp2616
(dp2617
g62
(dp2618
sg71
g2612
sg64
(lp2619
g57
(g78
g59
NtRp2620
(dp2621
g62
(dp2622
g82
g83
ssg71
g2616
sg64
(lp2623
S'session_id_jmtws'
p2624
asbag57
(g78
g59
NtRp2625
(dp2626
g62
(dp2627
g89
g90
ssg71
g2616
sg64
(lp2628
S':'
asbag57
(g78
g59
NtRp2629
(dp2630
g62
(dp2631
sg71
g2616
sg64
(lp2632
g57
(g58
g59
NtRp2633
(dp2634
g62
(dp2635
g70
I4
ssg71
g2629
sg64
(lp2636
g57
(g66
g59
NtRp2637
(dp2638
g62
(dp2639
g70
I3
ssg71
Nsg64
(lp2640
g57
(g73
g59
NtRp2641
(dp2642
g62
(dp2643
sg71
g2637
sg64
(lp2644
g57
(g78
g59
NtRp2645
(dp2646
g62
(dp2647
g82
g83
ssg71
g2641
sg64
(lp2648
S'comment'
p2649
asbag57
(g78
g59
NtRp2650
(dp2651
g62
(dp2652
g89
g90
ssg71
g2641
sg64
(lp2653
S':'
asbag57
(g78
g59
NtRp2654
(dp2655
g62
(dp2656
sg71
g2641
sg64
(lp2657
g57
(g58
g59
NtRp2658
(dp2659
g62
(dp2660
g70
I3
ssg71
g2654
sg64
(lp2661
S''
asbasbasbag57
(g73
g59
NtRp2662
(dp2663
g62
(dp2664
sg71
g2637
sg64
(lp2665
g57
(g78
g59
NtRp2666
(dp2667
g62
(dp2668
g82
g83
ssg71
g2662
sg64
(lp2669
S'domain'
p2670
asbag57
(g78
g59
NtRp2671
(dp2672
g62
(dp2673
g89
g90
ssg71
g2662
sg64
(lp2674
S':'
asbag57
(g78
g59
NtRp2675
(dp2676
g62
(dp2677
sg71
g2662
sg64
(lp2678
g57
(g58
g59
NtRp2679
(dp2680
g62
(dp2681
g70
I3
ssg71
g2675
sg64
(lp2682
S''
asbasbasbag57
(g73
g59
NtRp2683
(dp2684
g62
(dp2685
sg71
g2637
sg64
(lp2686
g57
(g78
g59
NtRp2687
(dp2688
g62
(dp2689
g82
g83
ssg71
g2683
sg64
(lp2690
S'expires'
p2691
asbag57
(g78
g59
NtRp2692
(dp2693
g62
(dp2694
g89
g90
ssg71
g2683
sg64
(lp2695
S':'
asbag57
(g78
g59
NtRp2696
(dp2697
g62
(dp2698
sg71
g2683
sg64
(lp2699
g57
(g58
g59
NtRp2700
(dp2701
g62
(dp2702
g70
I3
ssg71
g2696
sg64
(lp2703
S''
asbasbasbag57
(g73
g59
NtRp2704
(dp2705
g62
(dp2706
sg71
g2637
sg64
(lp2707
g57
(g78
g59
NtRp2708
(dp2709
g62
(dp2710
g82
g83
ssg71
g2704
sg64
(lp2711
S'httponly'
p2712
asbag57
(g78
g59
NtRp2713
(dp2714
g62
(dp2715
g89
g90
ssg71
g2704
sg64
(lp2716
S':'
asbag57
(g78
g59
NtRp2717
(dp2718
g62
(dp2719
sg71
g2704
sg64
(lp2720
g57
(g58
g59
NtRp2721
(dp2722
g62
(dp2723
g70
I3
ssg71
g2717
sg64
(lp2724
S''
asbasbasbag57
(g73
g59
NtRp2725
(dp2726
g62
(dp2727
sg71
g2637
sg64
(lp2728
g57
(g78
g59
NtRp2729
(dp2730
g62
(dp2731
g82
g83
ssg71
g2725
sg64
(lp2732
S'max-age'
p2733
asbag57
(g78
g59
NtRp2734
(dp2735
g62
(dp2736
g89
g90
ssg71
g2725
sg64
(lp2737
S':'
asbag57
(g78
g59
NtRp2738
(dp2739
g62
(dp2740
sg71
g2725
sg64
(lp2741
g57
(g58
g59
NtRp2742
(dp2743
g62
(dp2744
g70
I3
ssg71
g2738
sg64
(lp2745
S''
asbasbasbag57
(g73
g59
NtRp2746
(dp2747
g62
(dp2748
sg71
g2637
sg64
(lp2749
g57
(g78
g59
NtRp2750
(dp2751
g62
(dp2752
g82
g83
ssg71
g2746
sg64
(lp2753
S'path'
p2754
asbag57
(g78
g59
NtRp2755
(dp2756
g62
(dp2757
g89
g90
ssg71
g2746
sg64
(lp2758
S':'
asbag57
(g78
g59
NtRp2759
(dp2760
g62
(dp2761
sg71
g2746
sg64
(lp2762
g57
(g58
g59
NtRp2763
(dp2764
g62
(dp2765
g70
I3
ssg71
g2759
sg64
(lp2766
S'/'
asbasbasbag57
(g73
g59
NtRp2767
(dp2768
g62
(dp2769
sg71
g2637
sg64
(lp2770
g57
(g78
g59
NtRp2771
(dp2772
g62
(dp2773
g82
g83
ssg71
g2767
sg64
(lp2774
S'secure'
p2775
asbag57
(g78
g59
NtRp2776
(dp2777
g62
(dp2778
g89
g90
ssg71
g2767
sg64
(lp2779
S':'
asbag57
(g78
g59
NtRp2780
(dp2781
g62
(dp2782
sg71
g2767
sg64
(lp2783
g57
(g58
g59
NtRp2784
(dp2785
g62
(dp2786
g70
I3
ssg71
g2780
sg64
(lp2787
S''
asbasbasbag57
(g73
g59
NtRp2788
(dp2789
g62
(dp2790
sg71
g2637
sg64
(lp2791
g57
(g78
g59
NtRp2792
(dp2793
g62
(dp2794
g82
g83
ssg71
g2788
sg64
(lp2795
S'version'
p2796
asbag57
(g78
g59
NtRp2797
(dp2798
g62
(dp2799
g89
g90
ssg71
g2788
sg64
(lp2800
S':'
asbag57
(g78
g59
NtRp2801
(dp2802
g62
(dp2803
sg71
g2788
sg64
(lp2804
g57
(g58
g59
NtRp2805
(dp2806
g62
(dp2807
g70
I3
ssg71
g2801
sg64
(lp2808
S''
asbasbasbasbasbasbasbasbasbasbasbag57
(g73
g59
NtRp2809
(dp2810
g62
(dp2811
sg71
g2567
sg64
(lp2812
g57
(g78
g59
NtRp2813
(dp2814
g62
(dp2815
g82
g83
ssg71
g2809
sg64
(lp2816
S'files'
p2817
asbag57
(g78
g59
NtRp2818
(dp2819
g62
(dp2820
g89
g90
ssg71
g2809
sg64
(lp2821
S':'
asbag57
(g78
g59
NtRp2822
(dp2823
g62
(dp2824
sg71
g2809
sg64
(lp2825
g57
(g58
g59
NtRp2826
(dp2827
g62
(dp2828
g70
I5
ssg71
g2822
sg64
(lp2829
g57
(g66
g59
NtRp2830
(dp2831
g62
(dp2832
g70
I4
ssg71
Nsg64
(lp2833
sbasbasbasbag57
(g73
g59
NtRp2834
(dp2835
g62
(dp2836
sg71
g2567
sg64
(lp2837
g57
(g78
g59
NtRp2838
(dp2839
g62
(dp2840
g82
g83
ssg71
g2834
sg64
(lp2841
S'flash'
p2842
asbag57
(g78
g59
NtRp2843
(dp2844
g62
(dp2845
g89
g90
ssg71
g2834
sg64
(lp2846
S':'
asbag57
(g78
g59
NtRp2847
(dp2848
g62
(dp2849
sg71
g2834
sg64
(lp2850
g57
(g58
g59
NtRp2851
(dp2852
g62
(dp2853
g70
I5
ssg71
g2847
sg64
(lp2854
S''
asbasbasbag57
(g73
g59
NtRp2855
(dp2856
g62
(dp2857
sg71
g2567
sg64
(lp2858
g57
(g78
g59
NtRp2859
(dp2860
g62
(dp2861
g82
g83
ssg71
g2855
sg64
(lp2862
S'generic_patterns'
p2863
asbag57
(g78
g59
NtRp2864
(dp2865
g62
(dp2866
g89
g90
ssg71
g2855
sg64
(lp2867
S':'
asbag57
(g78
g59
NtRp2868
(dp2869
g62
(dp2870
sg71
g2855
sg64
(lp2871
g57
(g58
g59
NtRp2872
(dp2873
g62
(dp2874
g70
I5
ssg71
g2868
sg64
(lp2875
g57
(g66
g59
NtRp2876
(dp2877
g62
(dp2878
g70
I4
ssg71
Nsg64
(lp2879
g57
(g73
g59
NtRp2880
(dp2881
g62
(dp2882
sg71
g2876
sg64
(lp2883
g57
(g78
g59
NtRp2884
(dp2885
g62
(dp2886
sg71
g2880
sg64
(lp2887
g57
(g58
g59
NtRp2888
(dp2889
g62
(dp2890
g70
I4
ssg71
g2884
sg64
(lp2891
S'*'
asbasbasbasbasbasbasbag57
(g73
g59
NtRp2892
(dp2893
g62
(dp2894
sg71
g2567
sg64
(lp2895
g57
(g78
g59
NtRp2896
(dp2897
g62
(dp2898
g82
g83
ssg71
g2892
sg64
(lp2899
S'headers'
p2900
asbag57
(g78
g59
NtRp2901
(dp2902
g62
(dp2903
g89
g90
ssg71
g2892
sg64
(lp2904
S':'
asbag57
(g78
g59
NtRp2905
(dp2906
g62
(dp2907
sg71
g2892
sg64
(lp2908
g57
(g58
g59
NtRp2909
(dp2910
g62
(dp2911
g70
I5
ssg71
g2905
sg64
(lp2912
g57
(g66
g59
NtRp2913
(dp2914
g62
(dp2915
g70
I4
ssg71
Nsg64
(lp2916
g57
(g73
g59
NtRp2917
(dp2918
g62
(dp2919
sg71
g2913
sg64
(lp2920
g57
(g78
g59
NtRp2921
(dp2922
g62
(dp2923
g82
g83
ssg71
g2917
sg64
(lp2924
S'Cache-Control'
p2925
asbag57
(g78
g59
NtRp2926
(dp2927
g62
(dp2928
g89
g90
ssg71
g2917
sg64
(lp2929
S':'
asbag57
(g78
g59
NtRp2930
(dp2931
g62
(dp2932
sg71
g2917
sg64
(lp2933
g57
(g58
g59
NtRp2934
(dp2935
g62
(dp2936
g70
I4
ssg71
g2930
sg64
(lp2937
S'no-store, no-cache, must-revalidate, post-check=0, pre-check=0'
p2938
asbasbasbag57
(g73
g59
NtRp2939
(dp2940
g62
(dp2941
sg71
g2913
sg64
(lp2942
g57
(g78
g59
NtRp2943
(dp2944
g62
(dp2945
g82
g83
ssg71
g2939
sg64
(lp2946
S'Content-Type'
p2947
asbag57
(g78
g59
NtRp2948
(dp2949
g62
(dp2950
g89
g90
ssg71
g2939
sg64
(lp2951
S':'
asbag57
(g78
g59
NtRp2952
(dp2953
g62
(dp2954
sg71
g2939
sg64
(lp2955
g57
(g58
g59
NtRp2956
(dp2957
g62
(dp2958
g70
I4
ssg71
g2952
sg64
(lp2959
S'text/html; charset=utf-8'
p2960
asbasbasbag57
(g73
g59
NtRp2961
(dp2962
g62
(dp2963
sg71
g2913
sg64
(lp2964
g57
(g78
g59
NtRp2965
(dp2966
g62
(dp2967
g82
g83
ssg71
g2961
sg64
(lp2968
S'Expires'
p2969
asbag57
(g78
g59
NtRp2970
(dp2971
g62
(dp2972
g89
g90
ssg71
g2961
sg64
(lp2973
S':'
asbag57
(g78
g59
NtRp2974
(dp2975
g62
(dp2976
sg71
g2961
sg64
(lp2977
g57
(g58
g59
NtRp2978
(dp2979
g62
(dp2980
g70
I4
ssg71
g2974
sg64
(lp2981
S'Fri, 23 Dec 2011 08:34:20 GMT'
p2982
asbasbasbag57
(g73
g59
NtRp2983
(dp2984
g62
(dp2985
sg71
g2913
sg64
(lp2986
g57
(g78
g59
NtRp2987
(dp2988
g62
(dp2989
g82
g83
ssg71
g2983
sg64
(lp2990
S'Pragma'
p2991
asbag57
(g78
g59
NtRp2992
(dp2993
g62
(dp2994
g89
g90
ssg71
g2983
sg64
(lp2995
S':'
asbag57
(g78
g59
NtRp2996
(dp2997
g62
(dp2998
sg71
g2983
sg64
(lp2999
g57
(g58
g59
NtRp3000
(dp3001
g62
(dp3002
g70
I4
ssg71
g2996
sg64
(lp3003
S'no-cache'
p3004
asbasbasbag57
(g73
g59
NtRp3005
(dp3006
g62
(dp3007
sg71
g2913
sg64
(lp3008
g57
(g78
g59
NtRp3009
(dp3010
g62
(dp3011
g82
g83
ssg71
g3005
sg64
(lp3012
S'X-Powered-By'
p3013
asbag57
(g78
g59
NtRp3014
(dp3015
g62
(dp3016
g89
g90
ssg71
g3005
sg64
(lp3017
S':'
asbag57
(g78
g59
NtRp3018
(dp3019
g62
(dp3020
sg71
g3005
sg64
(lp3021
g57
(g58
g59
NtRp3022
(dp3023
g62
(dp3024
g70
I4
ssg71
g3018
sg64
(lp3025
S'web2py'
p3026
asbasbasbasbasbasbasbag57
(g73
g59
NtRp3027
(dp3028
g62
(dp3029
sg71
g2567
sg64
(lp3030
g57
(g78
g59
NtRp3031
(dp3032
g62
(dp3033
g82
g83
ssg71
g3027
sg64
(lp3034
S'menu'
p3035
asbag57
(g78
g59
NtRp3036
(dp3037
g62
(dp3038
g89
g90
ssg71
g3027
sg64
(lp3039
S':'
asbag57
(g78
g59
NtRp3040
(dp3041
g62
(dp3042
sg71
g3027
sg64
(lp3043
g57
(g58
g59
NtRp3044
(dp3045
g62
(dp3046
g70
I5
ssg71
g3040
sg64
(lp3047
g57
(g66
g59
NtRp3048
(dp3049
g62
(dp3050
g70
I4
ssg71
Nsg64
(lp3051
g57
(g73
g59
NtRp3052
(dp3053
g62
(dp3054
sg71
g3048
sg64
(lp3055
g57
(g78
g59
NtRp3056
(dp3057
g62
(dp3058
sg71
g3052
sg64
(lp3059
g57
(g58
g59
NtRp3060
(dp3061
g62
(dp3062
g70
I4
ssg71
g3056
sg64
(lp3063
g57
(g66
g59
NtRp3064
(dp3065
g62
(dp3066
g70
I3
ssg71
Nsg64
(lp3067
g57
(g73
g59
NtRp3068
(dp3069
g62
(dp3070
sg71
g3064
sg64
(lp3071
g57
(g78
g59
NtRp3072
(dp3073
g62
(dp3074
sg71
g3068
sg64
(lp3075
g57
(g58
g59
NtRp3076
(dp3077
g62
(dp3078
g70
I3
ssg71
g3072
sg64
(lp3079
cgluon.languages
lazyT_unpickle
p3080
(S't\x04\x00\x00\x00Home'
tRp3081
asbasbasbag57
(g73
g59
NtRp3082
(dp3083
g62
(dp3084
sg71
g3064
sg64
(lp3085
g57
(g78
g59
NtRp3086
(dp3087
g62
(dp3088
sg71
g3082
sg64
(lp3089
g57
(g58
g59
NtRp3090
(dp3091
g62
(dp3092
g70
I3
ssg71
g3086
sg64
(lp3093
g100
asbasbasbag57
(g73
g59
NtRp3094
(dp3095
g62
(dp3096
sg71
g3064
sg64
(lp3097
g57
(g78
g59
NtRp3098
(dp3099
g62
(dp3100
sg71
g3094
sg64
(lp3101
g57
(g58
g59
NtRp3102
(dp3103
g62
(dp3104
g70
I3
ssg71
g3098
sg64
(lp3105
S'/jmtws/default/index'
p3106
asbasbasbag57
(g73
g59
NtRp3107
(dp3108
g62
(dp3109
sg71
g3064
sg64
(lp3110
g57
(g78
g59
NtRp3111
(dp3112
g62
(dp3113
sg71
g3107
sg64
(lp3114
g57
(g58
g59
NtRp3115
(dp3116
g62
(dp3117
g70
I3
ssg71
g3111
sg64
(lp3118
g57
(g66
g59
NtRp3119
(dp3120
g62
(dp3121
g70
I2
ssg71
Nsg64
(lp3122
sbasbasbasbasbasbasbasbag57
(g73
g59
NtRp3123
(dp3124
g62
(dp3125
sg71
g3048
sg64
(lp3126
g57
(g78
g59
NtRp3127
(dp3128
g62
(dp3129
sg71
g3123
sg64
(lp3130
g57
(g58
g59
NtRp3131
(dp3132
g62
(dp3133
g70
I4
ssg71
g3127
sg64
(lp3134
g57
(g66
g59
NtRp3135
(dp3136
g62
(dp3137
g70
I3
ssg71
Nsg64
(lp3138
g57
(g73
g59
NtRp3139
(dp3140
g62
(dp3141
sg71
g3135
sg64
(lp3142
g57
(g78
g59
NtRp3143
(dp3144
g62
(dp3145
sg71
g3139
sg64
(lp3146
g57
(g58
g59
NtRp3147
(dp3148
g62
(dp3149
g70
I3
ssg71
g3143
sg64
(lp3150
g57
(cgluon.html
SPAN
p3151
g59
NtRp3152
(dp3153
g62
(dp3154
g82
S'color:yellow'
p3155
ssg71
Nsg64
(lp3156
g3026
asbasbasbasbag57
(g73
g59
NtRp3157
(dp3158
g62
(dp3159
sg71
g3135
sg64
(lp3160
g57
(g78
g59
NtRp3161
(dp3162
g62
(dp3163
sg71
g3157
sg64
(lp3164
g57
(g58
g59
NtRp3165
(dp3166
g62
(dp3167
g70
I3
ssg71
g3161
sg64
(lp3168
g100
asbasbasbag57
(g73
g59
NtRp3169
(dp3170
g62
(dp3171
sg71
g3135
sg64
(lp3172
g57
(g78
g59
NtRp3173
(dp3174
g62
(dp3175
sg71
g3169
sg64
(lp3176
g57
(g58
g59
NtRp3177
(dp3178
g62
(dp3179
g70
I3
ssg71
g3173
sg64
(lp3180
S'None'
p3181
asbasbasbag57
(g73
g59
NtRp3182
(dp3183
g62
(dp3184
sg71
g3135
sg64
(lp3185
g57
(g78
g59
NtRp3186
(dp3187
g62
(dp3188
sg71
g3182
sg64
(lp3189
g57
(g58
g59
NtRp3190
(dp3191
g62
(dp3192
g70
I3
ssg71
g3186
sg64
(lp3193
g57
(g66
g59
NtRp3194
(dp3195
g62
(dp3196
g70
I2
ssg71
Nsg64
(lp3197
g57
(g73
g59
NtRp3198
(dp3199
g62
(dp3200
sg71
g3194
sg64
(lp3201
g57
(g78
g59
NtRp3202
(dp3203
g62
(dp3204
sg71
g3198
sg64
(lp3205
g57
(g58
g59
NtRp3206
(dp3207
g62
(dp3208
g70
I2
ssg71
g3202
sg64
(lp3209
g57
(g66
g59
NtRp3210
(dp3211
g62
(dp3212
g70
I1
ssg71
Nsg64
(lp3213
g57
(g73
g59
NtRp3214
(dp3215
g62
(dp3216
sg71
g3210
sg64
(lp3217
g57
(g78
g59
NtRp3218
(dp3219
g62
(dp3220
sg71
g3214
sg64
(lp3221
g57
(g58
g59
NtRp3222
(dp3223
g62
(dp3224
g70
I1
ssg71
g3218
sg64
(lp3225
g3080
(S's\x08\x00\x00\x00My Sites'
tRp3226
asbasbasbag57
(g73
g59
NtRp3227
(dp3228
g62
(dp3229
sg71
g3210
sg64
(lp3230
g57
(g78
g59
NtRp3231
(dp3232
g62
(dp3233
sg71
g3227
sg64
(lp3234
g57
(g58
g59
NtRp3235
(dp3236
g62
(dp3237
g70
I1
ssg71
g3231
sg64
(lp3238
I00
asbasbasbag57
(g73
g59
NtRp3239
(dp3240
g62
(dp3241
sg71
g3210
sg64
(lp3242
g57
(g78
g59
NtRp3243
(dp3244
g62
(dp3245
sg71
g3239
sg64
(lp3246
g57
(g58
g59
NtRp3247
(dp3248
g62
(dp3249
g70
I1
ssg71
g3243
sg64
(lp3250
S'/admin/default/site'
p3251
asbasbasbasbasbasbasbag57
(g73
g59
NtRp3252
(dp3253
g62
(dp3254
sg71
g3194
sg64
(lp3255
g57
(g78
g59
NtRp3256
(dp3257
g62
(dp3258
sg71
g3252
sg64
(lp3259
g57
(g58
g59
NtRp3260
(dp3261
g62
(dp3262
g70
I2
ssg71
g3256
sg64
(lp3263
g57
(g66
g59
NtRp3264
(dp3265
g62
(dp3266
g70
I1
ssg71
Nsg64
(lp3267
g57
(g73
g59
NtRp3268
(dp3269
g62
(dp3270
sg71
g3264
sg64
(lp3271
g57
(g78
g59
NtRp3272
(dp3273
g62
(dp3274
sg71
g3268
sg64
(lp3275
g57
(g58
g59
NtRp3276
(dp3277
g62
(dp3278
g70
I1
ssg71
g3272
sg64
(lp3279
g3080
(S's\x08\x00\x00\x00This App'
tRp3280
asbasbasbag57
(g73
g59
NtRp3281
(dp3282
g62
(dp3283
sg71
g3264
sg64
(lp3284
g57
(g78
g59
NtRp3285
(dp3286
g62
(dp3287
sg71
g3281
sg64
(lp3288
g57
(g58
g59
NtRp3289
(dp3290
g62
(dp3291
g70
I1
ssg71
g3285
sg64
(lp3292
I00
asbasbasbag57
(g73
g59
NtRp3293
(dp3294
g62
(dp3295
sg71
g3264
sg64
(lp3296
g57
(g78
g59
NtRp3297
(dp3298
g62
(dp3299
sg71
g3293
sg64
(lp3300
g57
(g58
g59
NtRp3301
(dp3302
g62
(dp3303
g70
I1
ssg71
g3297
sg64
(lp3304
S'/admin/default/design/jmtws'
p3305
asbasbasbag57
(g73
g59
NtRp3306
(dp3307
g62
(dp3308
sg71
g3264
sg64
(lp3309
g57
(g78
g59
NtRp3310
(dp3311
g62
(dp3312
sg71
g3306
sg64
(lp3313
g57
(g58
g59
NtRp3314
(dp3315
g62
(dp3316
g70
I1
ssg71
g3310
sg64
(lp3317
(lp3318
(g3080
(S't\n\x00\x00\x00Controller'
tRp3319
I00
S'/admin/default/edit/jmtws/controllers/default.py'
tp3320
a(g3080
(S't\x04\x00\x00\x00View'
tRp3321
I00
S'/admin/default/edit/jmtws/views/default/jmt.html'
tp3322
a(g3080
(S't\x06\x00\x00\x00Layout'
tRp3323
I00
S'/admin/default/edit/jmtws/views/layout.html'
tp3324
a(g3080
(S't\n\x00\x00\x00Stylesheet'
tRp3325
I00
S'/admin/default/edit/jmtws/static/css/web2py.css'
tp3326
a(g3080
(S's\x08\x00\x00\x00DB Model'
tRp3327
I00
S'/admin/default/edit/jmtws/models/db.py'
tp3328
a(g3080
(S's\n\x00\x00\x00Menu Model'
tRp3329
I00
S'/admin/default/edit/jmtws/models/menu.py'
tp3330
a(g3080
(S't\x08\x00\x00\x00Database'
tRp3331
I00
S'/jmtws/appadmin/index'
tp3332
a(g3080
(S't\x06\x00\x00\x00Errors'
tRp3333
I00
S'/admin/default/errors/jmtws'
tp3334
a(g3080
(S't\x05\x00\x00\x00About'
tRp3335
I00
S'/admin/default/about/jmtws'
tp3336
aasbasbasbasbasbasbasbag57
(g73
g59
NtRp3337
(dp3338
g62
(dp3339
sg71
g3194
sg64
(lp3340
g57
(g78
g59
NtRp3341
(dp3342
g62
(dp3343
sg71
g3337
sg64
(lp3344
g57
(g58
g59
NtRp3345
(dp3346
g62
(dp3347
g70
I2
ssg71
g3341
sg64
(lp3348
g57
(g66
g59
NtRp3349
(dp3350
g62
(dp3351
g70
I1
ssg71
Nsg64
(lp3352
g57
(g73
g59
NtRp3353
(dp3354
g62
(dp3355
sg71
g3349
sg64
(lp3356
g57
(g78
g59
NtRp3357
(dp3358
g62
(dp3359
sg71
g3353
sg64
(lp3360
g57
(g58
g59
NtRp3361
(dp3362
g62
(dp3363
g70
I1
ssg71
g3357
sg64
(lp3364
S'web2py.com'
p3365
asbasbasbag57
(g73
g59
NtRp3366
(dp3367
g62
(dp3368
sg71
g3349
sg64
(lp3369
g57
(g78
g59
NtRp3370
(dp3371
g62
(dp3372
sg71
g3366
sg64
(lp3373
g57
(g58
g59
NtRp3374
(dp3375
g62
(dp3376
g70
I1
ssg71
g3370
sg64
(lp3377
I00
asbasbasbag57
(g73
g59
NtRp3378
(dp3379
g62
(dp3380
sg71
g3349
sg64
(lp3381
g57
(g78
g59
NtRp3382
(dp3383
g62
(dp3384
sg71
g3378
sg64
(lp3385
g57
(g58
g59
NtRp3386
(dp3387
g62
(dp3388
g70
I1
ssg71
g3382
sg64
(lp3389
S'http://www.web2py.com'
p3390
asbasbasbag57
(g73
g59
NtRp3391
(dp3392
g62
(dp3393
sg71
g3349
sg64
(lp3394
g57
(g78
g59
NtRp3395
(dp3396
g62
(dp3397
sg71
g3391
sg64
(lp3398
g57
(g58
g59
NtRp3399
(dp3400
g62
(dp3401
g70
I1
ssg71
g3395
sg64
(lp3402
(lp3403
(g3080
(S't\x08\x00\x00\x00Download'
tRp3404
I00
S'http://www.web2py.com/examples/default/download'
p3405
tp3406
a(g3080
(S't\x07\x00\x00\x00Support'
tRp3407
I00
S'http://www.web2py.com/examples/default/support'
p3408
tp3409
a(g3080
(S't\x04\x00\x00\x00Demo'
tRp3410
I00
S'http://web2py.com/demo_admin'
p3411
tp3412
a(g3080
(S's\x0e\x00\x00\x00Quick Examples'
tRp3413
I00
S'http://web2py.com/examples/default/examples'
p3414
tp3415
a(g3080
(S't\x03\x00\x00\x00FAQ'
tRp3416
I00
S'http://web2py.com/AlterEgo'
p3417
tp3418
a(g3080
(S't\x06\x00\x00\x00Videos'
tRp3419
I00
S'http://www.web2py.com/examples/default/videos/'
p3420
tp3421
a(g3080
(S's\x11\x00\x00\x00Free Applications'
tRp3422
I00
S'http://web2py.com/appliances'
p3423
tp3424
a(g3080
(S't\x07\x00\x00\x00Plugins'
tRp3425
I00
S'http://web2py.com/plugins'
p3426
tp3427
a(g3080
(S't\x07\x00\x00\x00Layouts'
tRp3428
I00
S'http://web2py.com/layouts'
p3429
tp3430
a(g3080
(S't\x07\x00\x00\x00Recipes'
tRp3431
I00
S'http://web2pyslices.com/'
p3432
tp3433
a(g3080
(S't\x08\x00\x00\x00Semantic'
tRp3434
I00
S'http://web2py.com/semantic'
p3435
tp3436
aasbasbasbasbasbasbasbag57
(g73
g59
NtRp3437
(dp3438
g62
(dp3439
sg71
g3194
sg64
(lp3440
g57
(g78
g59
NtRp3441
(dp3442
g62
(dp3443
sg71
g3437
sg64
(lp3444
g57
(g58
g59
NtRp3445
(dp3446
g62
(dp3447
g70
I2
ssg71
g3441
sg64
(lp3448
g57
(g66
g59
NtRp3449
(dp3450
g62
(dp3451
g70
I1
ssg71
Nsg64
(lp3452
g57
(g73
g59
NtRp3453
(dp3454
g62
(dp3455
sg71
g3449
sg64
(lp3456
g57
(g78
g59
NtRp3457
(dp3458
g62
(dp3459
sg71
g3453
sg64
(lp3460
g57
(g58
g59
NtRp3461
(dp3462
g62
(dp3463
g70
I1
ssg71
g3457
sg64
(lp3464
g3080
(S't\r\x00\x00\x00Documentation'
tRp3465
asbasbasbag57
(g73
g59
NtRp3466
(dp3467
g62
(dp3468
sg71
g3449
sg64
(lp3469
g57
(g78
g59
NtRp3470
(dp3471
g62
(dp3472
sg71
g3466
sg64
(lp3473
g57
(g58
g59
NtRp3474
(dp3475
g62
(dp3476
g70
I1
ssg71
g3470
sg64
(lp3477
I00
asbasbasbag57
(g73
g59
NtRp3478
(dp3479
g62
(dp3480
sg71
g3449
sg64
(lp3481
g57
(g78
g59
NtRp3482
(dp3483
g62
(dp3484
sg71
g3478
sg64
(lp3485
g57
(g58
g59
NtRp3486
(dp3487
g62
(dp3488
g70
I1
ssg71
g3482
sg64
(lp3489
S'http://www.web2py.com/book'
p3490
asbasbasbag57
(g73
g59
NtRp3491
(dp3492
g62
(dp3493
sg71
g3449
sg64
(lp3494
g57
(g78
g59
NtRp3495
(dp3496
g62
(dp3497
sg71
g3491
sg64
(lp3498
g57
(g58
g59
NtRp3499
(dp3500
g62
(dp3501
g70
I1
ssg71
g3495
sg64
(lp3502
(lp3503
(g3080
(S't\x07\x00\x00\x00Preface'
tRp3504
I00
S'http://www.web2py.com/book/default/chapter/00'
p3505
tp3506
a(g3080
(S't\x0c\x00\x00\x00Introduction'
tRp3507
I00
S'http://www.web2py.com/book/default/chapter/01'
p3508
tp3509
a(g3080
(S't\x06\x00\x00\x00Python'
tRp3510
I00
S'http://www.web2py.com/book/default/chapter/02'
p3511
tp3512
a(g3080
(S't\x08\x00\x00\x00Overview'
tRp3513
I00
S'http://www.web2py.com/book/default/chapter/03'
p3514
tp3515
a(g3080
(S's\x08\x00\x00\x00The Core'
tRp3516
I00
S'http://www.web2py.com/book/default/chapter/04'
p3517
tp3518
a(g3080
(S's\t\x00\x00\x00The Views'
tRp3519
I00
S'http://www.web2py.com/book/default/chapter/05'
p3520
tp3521
a(g3080
(S't\x08\x00\x00\x00Database'
tRp3522
I00
S'http://www.web2py.com/book/default/chapter/06'
p3523
tp3524
a(g3080
(S's\x14\x00\x00\x00Forms and Validators'
tRp3525
I00
S'http://www.web2py.com/book/default/chapter/07'
p3526
tp3527
a(g3080
(S's\r\x00\x00\x00Email and SMS'
tRp3528
I00
S'http://www.web2py.com/book/default/chapter/08'
p3529
tp3530
a(g3080
(S's\x0e\x00\x00\x00Access Control'
tRp3531
I00
S'http://www.web2py.com/book/default/chapter/09'
p3532
tp3533
a(g3080
(S't\x08\x00\x00\x00Services'
tRp3534
I00
S'http://www.web2py.com/book/default/chapter/10'
p3535
tp3536
a(g3080
(S's\x0c\x00\x00\x00Ajax Recipes'
tRp3537
I00
S'http://www.web2py.com/book/default/chapter/11'
p3538
tp3539
a(g3080
(S's\x16\x00\x00\x00Components and Plugins'
tRp3540
I00
S'http://www.web2py.com/book/default/chapter/12'
p3541
tp3542
a(g3080
(S's\x12\x00\x00\x00Deployment Recipes'
tRp3543
I00
S'http://www.web2py.com/book/default/chapter/13'
p3544
tp3545
a(g3080
(S's\r\x00\x00\x00Other Recipes'
tRp3546
I00
S'http://www.web2py.com/book/default/chapter/14'
p3547
tp3548
a(g3080
(S's\r\x00\x00\x00Buy this book'
tRp3549
I00
S'http://stores.lulu.com/web2py'
p3550
tp3551
aasbasbasbasbasbasbasbag57
(g73
g59
NtRp3552
(dp3553
g62
(dp3554
sg71
g3194
sg64
(lp3555
g57
(g78
g59
NtRp3556
(dp3557
g62
(dp3558
sg71
g3552
sg64
(lp3559
g57
(g58
g59
NtRp3560
(dp3561
g62
(dp3562
g70
I2
ssg71
g3556
sg64
(lp3563
g57
(g66
g59
NtRp3564
(dp3565
g62
(dp3566
g70
I1
ssg71
Nsg64
(lp3567
g57
(g73
g59
NtRp3568
(dp3569
g62
(dp3570
sg71
g3564
sg64
(lp3571
g57
(g78
g59
NtRp3572
(dp3573
g62
(dp3574
sg71
g3568
sg64
(lp3575
g57
(g58
g59
NtRp3576
(dp3577
g62
(dp3578
g70
I1
ssg71
g3572
sg64
(lp3579
g3080
(S't\t\x00\x00\x00Community'
tRp3580
asbasbasbag57
(g73
g59
NtRp3581
(dp3582
g62
(dp3583
sg71
g3564
sg64
(lp3584
g57
(g78
g59
NtRp3585
(dp3586
g62
(dp3587
sg71
g3581
sg64
(lp3588
g57
(g58
g59
NtRp3589
(dp3590
g62
(dp3591
g70
I1
ssg71
g3585
sg64
(lp3592
I00
asbasbasbag57
(g73
g59
NtRp3593
(dp3594
g62
(dp3595
sg71
g3564
sg64
(lp3596
g57
(g78
g59
NtRp3597
(dp3598
g62
(dp3599
sg71
g3593
sg64
(lp3600
g57
(g58
g59
NtRp3601
(dp3602
g62
(dp3603
g70
I1
ssg71
g3597
sg64
(lp3604
Nasbasbasbag57
(g73
g59
NtRp3605
(dp3606
g62
(dp3607
sg71
g3564
sg64
(lp3608
g57
(g78
g59
NtRp3609
(dp3610
g62
(dp3611
sg71
g3605
sg64
(lp3612
g57
(g58
g59
NtRp3613
(dp3614
g62
(dp3615
g70
I1
ssg71
g3609
sg64
(lp3616
(lp3617
(g3080
(S't\x06\x00\x00\x00Groups'
tRp3618
I00
S'http://www.web2py.com/examples/default/usergroups'
p3619
tp3620
a(g3080
(S't\x07\x00\x00\x00Twitter'
tRp3621
I00
S'http://twitter.com/web2py'
p3622
tp3623
a(g3080
(S's\t\x00\x00\x00Live Chat'
tRp3624
I00
S'http://webchat.freenode.net/?channels=web2py'
p3625
tp3626
aasbasbasbasbasbasbasbag57
(g73
g59
NtRp3627
(dp3628
g62
(dp3629
sg71
g3194
sg64
(lp3630
g57
(g78
g59
NtRp3631
(dp3632
g62
(dp3633
sg71
g3627
sg64
(lp3634
g57
(g58
g59
NtRp3635
(dp3636
g62
(dp3637
g70
I2
ssg71
g3631
sg64
(lp3638
g57
(g66
g59
NtRp3639
(dp3640
g62
(dp3641
g70
I1
ssg71
Nsg64
(lp3642
g57
(g73
g59
NtRp3643
(dp3644
g62
(dp3645
sg71
g3639
sg64
(lp3646
g57
(g78
g59
NtRp3647
(dp3648
g62
(dp3649
sg71
g3643
sg64
(lp3650
g57
(g58
g59
NtRp3651
(dp3652
g62
(dp3653
g70
I1
ssg71
g3647
sg64
(lp3654
g3080
(S't\x07\x00\x00\x00Plugins'
tRp3655
asbasbasbag57
(g73
g59
NtRp3656
(dp3657
g62
(dp3658
sg71
g3639
sg64
(lp3659
g57
(g78
g59
NtRp3660
(dp3661
g62
(dp3662
sg71
g3656
sg64
(lp3663
g57
(g58
g59
NtRp3664
(dp3665
g62
(dp3666
g70
I1
ssg71
g3660
sg64
(lp3667
I00
asbasbasbag57
(g73
g59
NtRp3668
(dp3669
g62
(dp3670
sg71
g3639
sg64
(lp3671
g57
(g78
g59
NtRp3672
(dp3673
g62
(dp3674
sg71
g3668
sg64
(lp3675
g57
(g58
g59
NtRp3676
(dp3677
g62
(dp3678
g70
I1
ssg71
g3672
sg64
(lp3679
Nasbasbasbag57
(g73
g59
NtRp3680
(dp3681
g62
(dp3682
sg71
g3639
sg64
(lp3683
g57
(g78
g59
NtRp3684
(dp3685
g62
(dp3686
sg71
g3680
sg64
(lp3687
g57
(g58
g59
NtRp3688
(dp3689
g62
(dp3690
g70
I1
ssg71
g3684
sg64
(lp3691
(lp3692
(S'plugin_wiki'
p3693
I00
S'http://web2py.com/examples/default/download'
p3694
tp3695
a(g3080
(S's\r\x00\x00\x00Other Plugins'
tRp3696
I00
g3426
tp3697
a(g3080
(S's\x0e\x00\x00\x00Layout Plugins'
tRp3698
I00
g3429
tp3699
aasbasbasbasbasbasbasbasbasbasbasbasbasbasbasbasbasbasbasbag57
(g73
g59
NtRp3700
(dp3701
g62
(dp3702
sg71
g2567
sg64
(lp3703
g57
(g78
g59
NtRp3704
(dp3705
g62
(dp3706
g82
g83
ssg71
g3700
sg64
(lp3707
S'meta'
p3708
asbag57
(g78
g59
NtRp3709
(dp3710
g62
(dp3711
g89
g90
ssg71
g3700
sg64
(lp3712
S':'
asbag57
(g78
g59
NtRp3713
(dp3714
g62
(dp3715
sg71
g3700
sg64
(lp3716
g57
(g58
g59
NtRp3717
(dp3718
g62
(dp3719
g70
I5
ssg71
g3713
sg64
(lp3720
g57
(g66
g59
NtRp3721
(dp3722
g62
(dp3723
g70
I4
ssg71
Nsg64
(lp3724
g57
(g73
g59
NtRp3725
(dp3726
g62
(dp3727
sg71
g3721
sg64
(lp3728
g57
(g78
g59
NtRp3729
(dp3730
g62
(dp3731
g82
g83
ssg71
g3725
sg64
(lp3732
S'author'
p3733
asbag57
(g78
g59
NtRp3734
(dp3735
g62
(dp3736
g89
g90
ssg71
g3725
sg64
(lp3737
S':'
asbag57
(g78
g59
NtRp3738
(dp3739
g62
(dp3740
sg71
g3725
sg64
(lp3741
g57
(g58
g59
NtRp3742
(dp3743
g62
(dp3744
g70
I4
ssg71
g3738
sg64
(lp3745
S'Your Name <you@example.com>'
p3746
asbasbasbag57
(g73
g59
NtRp3747
(dp3748
g62
(dp3749
sg71
g3721
sg64
(lp3750
g57
(g78
g59
NtRp3751
(dp3752
g62
(dp3753
g82
g83
ssg71
g3747
sg64
(lp3754
S'copyright'
p3755
asbag57
(g78
g59
NtRp3756
(dp3757
g62
(dp3758
g89
g90
ssg71
g3747
sg64
(lp3759
S':'
asbag57
(g78
g59
NtRp3760
(dp3761
g62
(dp3762
sg71
g3747
sg64
(lp3763
g57
(g58
g59
NtRp3764
(dp3765
g62
(dp3766
g70
I4
ssg71
g3760
sg64
(lp3767
S'Copyright 2011'
p3768
asbasbasbag57
(g73
g59
NtRp3769
(dp3770
g62
(dp3771
sg71
g3721
sg64
(lp3772
g57
(g78
g59
NtRp3773
(dp3774
g62
(dp3775
g82
g83
ssg71
g3769
sg64
(lp3776
S'description'
p3777
asbag57
(g78
g59
NtRp3778
(dp3779
g62
(dp3780
g89
g90
ssg71
g3769
sg64
(lp3781
S':'
asbag57
(g78
g59
NtRp3782
(dp3783
g62
(dp3784
sg71
g3769
sg64
(lp3785
g57
(g58
g59
NtRp3786
(dp3787
g62
(dp3788
g70
I4
ssg71
g3782
sg64
(lp3789
S'a cool new app'
p3790
asbasbasbag57
(g73
g59
NtRp3791
(dp3792
g62
(dp3793
sg71
g3721
sg64
(lp3794
g57
(g78
g59
NtRp3795
(dp3796
g62
(dp3797
g82
g83
ssg71
g3791
sg64
(lp3798
S'generator'
p3799
asbag57
(g78
g59
NtRp3800
(dp3801
g62
(dp3802
g89
g90
ssg71
g3791
sg64
(lp3803
S':'
asbag57
(g78
g59
NtRp3804
(dp3805
g62
(dp3806
sg71
g3791
sg64
(lp3807
g57
(g58
g59
NtRp3808
(dp3809
g62
(dp3810
g70
I4
ssg71
g3804
sg64
(lp3811
S'Web2py Web Framework'
p3812
asbasbasbag57
(g73
g59
NtRp3813
(dp3814
g62
(dp3815
sg71
g3721
sg64
(lp3816
g57
(g78
g59
NtRp3817
(dp3818
g62
(dp3819
g82
g83
ssg71
g3813
sg64
(lp3820
S'keywords'
p3821
asbag57
(g78
g59
NtRp3822
(dp3823
g62
(dp3824
g89
g90
ssg71
g3813
sg64
(lp3825
S':'
asbag57
(g78
g59
NtRp3826
(dp3827
g62
(dp3828
sg71
g3813
sg64
(lp3829
g57
(g58
g59
NtRp3830
(dp3831
g62
(dp3832
g70
I4
ssg71
g3826
sg64
(lp3833
S'web2py, python, framework'
p3834
asbasbasbasbasbasbasbag57
(g73
g59
NtRp3835
(dp3836
g62
(dp3837
sg71
g2567
sg64
(lp3838
g57
(g78
g59
NtRp3839
(dp3840
g62
(dp3841
g82
g83
ssg71
g3835
sg64
(lp3842
S'postprocessing'
p3843
asbag57
(g78
g59
NtRp3844
(dp3845
g62
(dp3846
g89
g90
ssg71
g3835
sg64
(lp3847
S':'
asbag57
(g78
g59
NtRp3848
(dp3849
g62
(dp3850
sg71
g3835
sg64
(lp3851
g57
(g58
g59
NtRp3852
(dp3853
g62
(dp3854
g70
I5
ssg71
g3848
sg64
(lp3855
g57
(g66
g59
NtRp3856
(dp3857
g62
(dp3858
g70
I4
ssg71
Nsg64
(lp3859
sbasbasbasbag57
(g73
g59
NtRp3860
(dp3861
g62
(dp3862
sg71
g2567
sg64
(lp3863
g57
(g78
g59
NtRp3864
(dp3865
g62
(dp3866
g82
g83
ssg71
g3860
sg64
(lp3867
S'session_filename'
p3868
asbag57
(g78
g59
NtRp3869
(dp3870
g62
(dp3871
g89
g90
ssg71
g3860
sg64
(lp3872
S':'
asbag57
(g78
g59
NtRp3873
(dp3874
g62
(dp3875
sg71
g3860
sg64
(lp3876
g57
(g58
g59
NtRp3877
(dp3878
g62
(dp3879
g70
I5
ssg71
g3873
sg64
(lp3880
S'/var/www/jmtws/web2py/applications/jmtws/sessions/127.0.0.1-bf55aeb8-97d7-4038-9ace-b86a09627911'
p3881
asbasbasbag57
(g73
g59
NtRp3882
(dp3883
g62
(dp3884
sg71
g2567
sg64
(lp3885
g57
(g78
g59
NtRp3886
(dp3887
g62
(dp3888
g82
g83
ssg71
g3882
sg64
(lp3889
S'session_id'
p3890
asbag57
(g78
g59
NtRp3891
(dp3892
g62
(dp3893
g89
g90
ssg71
g3882
sg64
(lp3894
S':'
asbag57
(g78
g59
NtRp3895
(dp3896
g62
(dp3897
sg71
g3882
sg64
(lp3898
g57
(g58
g59
NtRp3899
(dp3900
g62
(dp3901
g70
I5
ssg71
g3895
sg64
(lp3902
S'127.0.0.1-bf55aeb8-97d7-4038-9ace-b86a09627911'
p3903
asbasbasbag57
(g73
g59
NtRp3904
(dp3905
g62
(dp3906
sg71
g2567
sg64
(lp3907
g57
(g78
g59
NtRp3908
(dp3909
g62
(dp3910
g82
g83
ssg71
g3904
sg64
(lp3911
S'session_id_name'
p3912
asbag57
(g78
g59
NtRp3913
(dp3914
g62
(dp3915
g89
g90
ssg71
g3904
sg64
(lp3916
S':'
asbag57
(g78
g59
NtRp3917
(dp3918
g62
(dp3919
sg71
g3904
sg64
(lp3920
g57
(g58
g59
NtRp3921
(dp3922
g62
(dp3923
g70
I5
ssg71
g3917
sg64
(lp3924
g2624
asbasbasbag57
(g73
g59
NtRp3925
(dp3926
g62
(dp3927
sg71
g2567
sg64
(lp3928
g57
(g78
g59
NtRp3929
(dp3930
g62
(dp3931
g82
g83
ssg71
g3925
sg64
(lp3932
S'session_new'
p3933
asbag57
(g78
g59
NtRp3934
(dp3935
g62
(dp3936
g89
g90
ssg71
g3925
sg64
(lp3937
S':'
asbag57
(g78
g59
NtRp3938
(dp3939
g62
(dp3940
sg71
g3925
sg64
(lp3941
g57
(g58
g59
NtRp3942
(dp3943
g62
(dp3944
g70
I5
ssg71
g3938
sg64
(lp3945
g1104
asbasbasbag57
(g73
g59
NtRp3946
(dp3947
g62
(dp3948
sg71
g2567
sg64
(lp3949
g57
(g78
g59
NtRp3950
(dp3951
g62
(dp3952
g82
g83
ssg71
g3946
sg64
(lp3953
S'status'
p3954
asbag57
(g78
g59
NtRp3955
(dp3956
g62
(dp3957
g89
g90
ssg71
g3946
sg64
(lp3958
S':'
asbag57
(g78
g59
NtRp3959
(dp3960
g62
(dp3961
sg71
g3946
sg64
(lp3962
g57
(g58
g59
NtRp3963
(dp3964
g62
(dp3965
g70
I5
ssg71
g3959
sg64
(lp3966
S'200'
p3967
asbasbasbag57
(g73
g59
NtRp3968
(dp3969
g62
(dp3970
sg71
g2567
sg64
(lp3971
g57
(g78
g59
NtRp3972
(dp3973
g62
(dp3974
g82
g83
ssg71
g3968
sg64
(lp3975
S'subtitle'
p3976
asbag57
(g78
g59
NtRp3977
(dp3978
g62
(dp3979
g89
g90
ssg71
g3968
sg64
(lp3980
S':'
asbag57
(g78
g59
NtRp3981
(dp3982
g62
(dp3983
sg71
g3968
sg64
(lp3984
g57
(g58
g59
NtRp3985
(dp3986
g62
(dp3987
g70
I5
ssg71
g3981
sg64
(lp3988
g3080
(S's\r\x00\x00\x00customize me!'
tRp3989
asbasbasbag57
(g73
g59
NtRp3990
(dp3991
g62
(dp3992
sg71
g2567
sg64
(lp3993
g57
(g78
g59
NtRp3994
(dp3995
g62
(dp3996
g82
g83
ssg71
g3990
sg64
(lp3997
S'title'
p3998
asbag57
(g78
g59
NtRp3999
(dp4000
g62
(dp4001
g89
g90
ssg71
g3990
sg64
(lp4002
S':'
asbag57
(g78
g59
NtRp4003
(dp4004
g62
(dp4005
sg71
g3990
sg64
(lp4006
g57
(g58
g59
NtRp4007
(dp4008
g62
(dp4009
g70
I5
ssg71
g4003
sg64
(lp4010
S'Jmtws'
p4011
asbasbasbag57
(g73
g59
NtRp4012
(dp4013
g62
(dp4014
sg71
g2567
sg64
(lp4015
g57
(g78
g59
NtRp4016
(dp4017
g62
(dp4018
g82
g83
ssg71
g4012
sg64
(lp4019
g1811
asbag57
(g78
g59
NtRp4020
(dp4021
g62
(dp4022
g89
g90
ssg71
g4012
sg64
(lp4023
S':'
asbag57
(g78
g59
NtRp4024
(dp4025
g62
(dp4026
sg71
g4012
sg64
(lp4027
g57
(g58
g59
NtRp4028
(dp4029
g62
(dp4030
g70
I5
ssg71
g4024
sg64
(lp4031
g1824
asbasbasbag57
(g73
g59
NtRp4032
(dp4033
g62
(dp4034
sg71
g2567
sg64
(lp4035
g57
(g78
g59
NtRp4036
(dp4037
g62
(dp4038
g82
g83
ssg71
g4032
sg64
(lp4039
S'view'
p4040
asbag57
(g78
g59
NtRp4041
(dp4042
g62
(dp4043
g89
g90
ssg71
g4032
sg64
(lp4044
S':'
asbag57
(g78
g59
NtRp4045
(dp4046
g62
(dp4047
sg71
g4032
sg64
(lp4048
g57
(g58
g59
NtRp4049
(dp4050
g62
(dp4051
g70
I5
ssg71
g4045
sg64
(lp4052
S'generic.json'
p4053
asbasbasbasbasbsS'locals'
p4054
(dp4055
S'a'
S'()'
p4056
sS'_self'
p4057
S"<Storage {'body': <open file '<fdopen>', mode 'w...esults></stationresults></solutions></model>'}>}>"
p4058
sS'b'
g45
sS'e'
S'TypeError("__init__() got an unexpected keyword argument \'output\'",)'
p4059
sS'exc_traceback'
p4060
S'<traceback object>'
p4061
sS'_action'
p4062
S'<function jmt>'
p4063
sS'exc_value'
p4064
S'TypeError("__init__() got an unexpected keyword argument \'output\'",)'
p4065
sS'self'
p4066
S"<Storage {'body': <open file '<fdopen>', mode 'w...esults></stationresults></solutions></model>'}>}>"
p4067
sS'rest_action'
p4068
S'<function POST>'
p4069
sS'method'
p4070
S"'POST'"
p4071
sS'exc_type'
p4072
S"<type 'exceptions.TypeError'>"
p4073
sssS'traceback'
p4074
S'Traceback (most recent call last):\n  File "/var/www/jmtws/web2py/gluon/restricted.py", line 204, in restricted\n    exec ccode in environment\n  File "/var/www/jmtws/web2py/applications/jmtws/controllers/default.py", line 112, in <module>\n  File "/var/www/jmtws/web2py/gluon/globals.py", line 172, in <lambda>\n    self._caller = lambda f: f()\n  File "/var/www/jmtws/web2py/gluon/globals.py", line 144, in f\n    raise e\nTypeError: __init__() got an unexpected keyword argument \'output\'\n'
p4075
s.