(dp1
S'output'
p2
S"<type 'exceptions.IndexError'> tuple index out of range"
p3
sS'layer'
p4
S'/var/www/jmtws/web2py/applications/jmtws/controllers/default.py'
p5
sS'code'
p6
S'# -*- coding: utf-8 -*-\n# this file is released under public domain and you can use without limitations\n\n#########################################################################\n## This is a samples controller\n## - index is the default action of any application\n## - user is required for authentication and authorization\n## - download is for downloading files uploaded in the db (does streaming)\n## - call exposes all registered services (none by default)\n#########################################################################\n\n\'\'\'\ndef index():\n    """\n    example action using the internationalization operator T and flash\n    rendered by views/default/index.html or views/generic.html\n    """\n    response.flash = "Welcome to web2py!"\n    return dict(message=T(\'Hello World\'))\n\'\'\'\n\ndef index():\n    return dict(message=T("This is a the home of JMT webservices"))\n\nimport subprocess\n\n@request.restful()\ndef jmt():\n    response.view = \'generic.json\'\n    def POST(*args,**vars):\n        print args, vars\n        message = \'ok\'\n        result = False\n        mode = args[1]\n        xml = vars.get(\'xml\')\n        print mode\n        if not mode:\n            message = T(\'You have to select between mva or sim\')\n            success = False\n        elif xml:\n            pass\n        \'\'\'\n            java -cp JMT.jar jmt.commandline.Jmt\n        \'\'\'\n        return dict(\n                    message = message,\n                    result = result\n                   )\n    return locals()\n\ndef user():\n    """\n    exposes:\n    http://..../[app]/default/user/login\n    http://..../[app]/default/user/logout\n    http://..../[app]/default/user/register\n    http://..../[app]/default/user/profile\n    http://..../[app]/default/user/retrieve_password\n    http://..../[app]/default/user/change_password\n    use @auth.requires_login()\n        @auth.requires_membership(\'group name\')\n        @auth.requires_permission(\'read\',\'table name\',record_id)\n    to decorate functions that need access control\n    """\n    return dict(form=auth())\n\n\ndef download():\n    """\n    allows downloading of uploaded files\n    http://..../[app]/default/download/[filename]\n    """\n    return response.download(request,db)\n\n\ndef call():\n    """\n    exposes services. for example:\n    http://..../[app]/default/call/jsonrpc\n    decorate with @services.jsonrpc the functions to expose\n    supports xml, json, xmlrpc, jsonrpc, amfrpc, rss, csv\n    """\n    return service()\n\n\n@auth.requires_signature()\ndef data():\n    """\n    http://..../[app]/default/data/tables\n    http://..../[app]/default/data/create/[table]\n    http://..../[app]/default/data/read/[table]/[id]\n    http://..../[app]/default/data/update/[table]/[id]\n    http://..../[app]/default/data/delete/[table]/[id]\n    http://..../[app]/default/data/select/[table]\n    http://..../[app]/default/data/search/[table]\n    but URLs must be signed, i.e. linked with\n      A(\'table\',_href=URL(\'data/tables\',user_signature=True))\n    or with the signed load operator\n      LOAD(\'default\',\'data.load\',args=\'tables\',ajax=True,user_signature=True)\n    """\n    return dict(form=crud())\n\nresponse._vars=response._caller(jmt)\n'
p7
sS'snapshot'
p8
(dp9
S'exception'
p10
(dp11
S'__hash__'
p12
S"<method-wrapper '__hash__' of exceptions.IndexError object>"
p13
sS'__setattr__'
p14
S"<method-wrapper '__setattr__' of exceptions.IndexError object>"
p15
sS'__reduce_ex__'
p16
S'<built-in method __reduce_ex__ of exceptions.IndexError object>'
p17
sS'__getslice__'
p18
S"<method-wrapper '__getslice__' of exceptions.IndexError object>"
p19
sS'__getitem__'
p20
S"<method-wrapper '__getitem__' of exceptions.IndexError object>"
p21
sS'__setstate__'
p22
S'<built-in method __setstate__ of exceptions.IndexError object>'
p23
sS'args'
p24
S"('tuple index out of range',)"
p25
sS'__reduce__'
p26
S'<built-in method __reduce__ of exceptions.IndexError object>'
p27
sS'__str__'
p28
S"<method-wrapper '__str__' of exceptions.IndexError object>"
p29
sS'__format__'
p30
S'<built-in method __format__ of exceptions.IndexError object>'
p31
sS'__getattribute__'
p32
S"<method-wrapper '__getattribute__' of exceptions.IndexError object>"
p33
sS'__class__'
p34
S"<type 'exceptions.IndexError'>"
p35
sS'__unicode__'
p36
S'<built-in method __unicode__ of exceptions.IndexError object>'
p37
sS'__delattr__'
p38
S"<method-wrapper '__delattr__' of exceptions.IndexError object>"
p39
sS'__subclasshook__'
p40
S'<built-in method __subclasshook__ of type object>'
p41
sS'__repr__'
p42
S"<method-wrapper '__repr__' of exceptions.IndexError object>"
p43
sS'__dict__'
p44
S'{}'
p45
sS'__sizeof__'
p46
S'<built-in method __sizeof__ of exceptions.IndexError object>'
p47
sS'__doc__'
p48
S"'Sequence index out of range.'"
p49
sS'__init__'
p50
S"<method-wrapper '__init__' of exceptions.IndexError object>"
p51
sS'__new__'
p52
S'<built-in method __new__ of type object>'
p53
ssS'evalue'
p54
S'tuple index out of range'
p55
sS'request'
p56
ccopy_reg
_reconstructor
p57
(cgluon.html
BEAUTIFY
p58
c__builtin__
object
p59
NtRp60
(dp61
S'attributes'
p62
(dp63
sS'components'
p64
(lp65
g57
(cgluon.html
TABLE
p66
g59
NtRp67
(dp68
g62
(dp69
S'level'
p70
I5
ssS'parent'
p71
Nsg64
(lp72
g57
(cgluon.html
TR
p73
g59
NtRp74
(dp75
g62
(dp76
sg71
g67
sg64
(lp77
g57
(cgluon.html
TD
p78
g59
NtRp79
(dp80
g62
(dp81
S'_style'
p82
S'font-weight:bold;vertical-align:top'
p83
ssg71
g74
sg64
(lp84
S'ajax'
p85
asbag57
(g78
g59
NtRp86
(dp87
g62
(dp88
S'_valign'
p89
S'top'
p90
ssg71
g74
sg64
(lp91
S':'
asbag57
(g78
g59
NtRp92
(dp93
g62
(dp94
sg71
g74
sg64
(lp95
g57
(g58
g59
NtRp96
(dp97
g62
(dp98
g70
I5
ssg71
g92
sg64
(lp99
S'False'
p100
asbasbasbag57
(g73
g59
NtRp101
(dp102
g62
(dp103
sg71
g67
sg64
(lp104
g57
(g78
g59
NtRp105
(dp106
g62
(dp107
g82
g83
ssg71
g101
sg64
(lp108
S'application'
p109
asbag57
(g78
g59
NtRp110
(dp111
g62
(dp112
g89
g90
ssg71
g101
sg64
(lp113
S':'
asbag57
(g78
g59
NtRp114
(dp115
g62
(dp116
sg71
g101
sg64
(lp117
g57
(g58
g59
NtRp118
(dp119
g62
(dp120
g70
I5
ssg71
g114
sg64
(lp121
S'jmtws'
p122
asbasbasbag57
(g73
g59
NtRp123
(dp124
g62
(dp125
sg71
g67
sg64
(lp126
g57
(g78
g59
NtRp127
(dp128
g62
(dp129
g82
g83
ssg71
g123
sg64
(lp130
g24
asbag57
(g78
g59
NtRp131
(dp132
g62
(dp133
g89
g90
ssg71
g123
sg64
(lp134
S':'
asbag57
(g78
g59
NtRp135
(dp136
g62
(dp137
sg71
g123
sg64
(lp138
g57
(g58
g59
NtRp139
(dp140
g62
(dp141
g70
I5
ssg71
g135
sg64
(lp142
g57
(g66
g59
NtRp143
(dp144
g62
(dp145
g70
I4
ssg71
Nsg64
(lp146
g57
(g73
g59
NtRp147
(dp148
g62
(dp149
sg71
g143
sg64
(lp150
g57
(g78
g59
NtRp151
(dp152
g62
(dp153
sg71
g147
sg64
(lp154
g57
(g58
g59
NtRp155
(dp156
g62
(dp157
g70
I4
ssg71
g151
sg64
(lp158
S'mva'
p159
asbasbasbasbasbasbasbag57
(g73
g59
NtRp160
(dp161
g62
(dp162
sg71
g67
sg64
(lp163
g57
(g78
g59
NtRp164
(dp165
g62
(dp166
g82
g83
ssg71
g160
sg64
(lp167
S'body'
p168
asbag57
(g78
g59
NtRp169
(dp170
g62
(dp171
g89
g90
ssg71
g160
sg64
(lp172
S':'
asbag57
(g78
g59
NtRp173
(dp174
g62
(dp175
sg71
g160
sg64
(lp176
g57
(g58
g59
NtRp177
(dp178
g62
(dp179
g70
I5
ssg71
g173
sg64
(lp180
S"<open file '<fdopen>', mode 'w+b' at 0x2d2e390>"
p181
asbasbasbag57
(g73
g59
NtRp182
(dp183
g62
(dp184
sg71
g67
sg64
(lp185
g57
(g78
g59
NtRp186
(dp187
g62
(dp188
g82
g83
ssg71
g182
sg64
(lp189
S'client'
p190
asbag57
(g78
g59
NtRp191
(dp192
g62
(dp193
g89
g90
ssg71
g182
sg64
(lp194
S':'
asbag57
(g78
g59
NtRp195
(dp196
g62
(dp197
sg71
g182
sg64
(lp198
g57
(g58
g59
NtRp199
(dp200
g62
(dp201
g70
I5
ssg71
g195
sg64
(lp202
S'127.0.0.1'
p203
asbasbasbag57
(g73
g59
NtRp204
(dp205
g62
(dp206
sg71
g67
sg64
(lp207
g57
(g78
g59
NtRp208
(dp209
g62
(dp210
g82
g83
ssg71
g204
sg64
(lp211
S'controller'
p212
asbag57
(g78
g59
NtRp213
(dp214
g62
(dp215
g89
g90
ssg71
g204
sg64
(lp216
S':'
asbag57
(g78
g59
NtRp217
(dp218
g62
(dp219
sg71
g204
sg64
(lp220
g57
(g58
g59
NtRp221
(dp222
g62
(dp223
g70
I5
ssg71
g217
sg64
(lp224
S'default'
p225
asbasbasbag57
(g73
g59
NtRp226
(dp227
g62
(dp228
sg71
g67
sg64
(lp229
g57
(g78
g59
NtRp230
(dp231
g62
(dp232
g82
g83
ssg71
g226
sg64
(lp233
S'cookies'
p234
asbag57
(g78
g59
NtRp235
(dp236
g62
(dp237
g89
g90
ssg71
g226
sg64
(lp238
S':'
asbag57
(g78
g59
NtRp239
(dp240
g62
(dp241
sg71
g226
sg64
(lp242
g57
(g58
g59
NtRp243
(dp244
g62
(dp245
g70
I5
ssg71
g239
sg64
(lp246
g57
(g66
g59
NtRp247
(dp248
g62
(dp249
g70
I4
ssg71
Nsg64
(lp250
sbasbasbasbag57
(g73
g59
NtRp251
(dp252
g62
(dp253
sg71
g67
sg64
(lp254
g57
(g78
g59
NtRp255
(dp256
g62
(dp257
g82
g83
ssg71
g251
sg64
(lp258
S'env'
p259
asbag57
(g78
g59
NtRp260
(dp261
g62
(dp262
g89
g90
ssg71
g251
sg64
(lp263
S':'
asbag57
(g78
g59
NtRp264
(dp265
g62
(dp266
sg71
g251
sg64
(lp267
g57
(g58
g59
NtRp268
(dp269
g62
(dp270
g70
I5
ssg71
g264
sg64
(lp271
g57
(g66
g59
NtRp272
(dp273
g62
(dp274
g70
I4
ssg71
Nsg64
(lp275
g57
(g73
g59
NtRp276
(dp277
g62
(dp278
sg71
g272
sg64
(lp279
g57
(g78
g59
NtRp280
(dp281
g62
(dp282
g82
g83
ssg71
g276
sg64
(lp283
S'app_folders'
p284
asbag57
(g78
g59
NtRp285
(dp286
g62
(dp287
g89
g90
ssg71
g276
sg64
(lp288
S':'
asbag57
(g78
g59
NtRp289
(dp290
g62
(dp291
sg71
g276
sg64
(lp292
g57
(g58
g59
NtRp293
(dp294
g62
(dp295
g70
I4
ssg71
g289
sg64
(lp296
S"set(['/var/www/jmtws/web2py/applications/jmtws/', '/var/www/jmtws/web2py/applications/admin/', '/var/www/jmtws/web2py/applications/welcome/'])"
p297
asbasbasbag57
(g73
g59
NtRp298
(dp299
g62
(dp300
sg71
g272
sg64
(lp301
g57
(g78
g59
NtRp302
(dp303
g62
(dp304
g82
g83
ssg71
g298
sg64
(lp305
S'applications_parent'
p306
asbag57
(g78
g59
NtRp307
(dp308
g62
(dp309
g89
g90
ssg71
g298
sg64
(lp310
S':'
asbag57
(g78
g59
NtRp311
(dp312
g62
(dp313
sg71
g298
sg64
(lp314
g57
(g58
g59
NtRp315
(dp316
g62
(dp317
g70
I4
ssg71
g311
sg64
(lp318
S'/var/www/jmtws/web2py'
p319
asbasbasbag57
(g73
g59
NtRp320
(dp321
g62
(dp322
sg71
g272
sg64
(lp323
g57
(g78
g59
NtRp324
(dp325
g62
(dp326
g82
g83
ssg71
g320
sg64
(lp327
S'cmd_args'
p328
asbag57
(g78
g59
NtRp329
(dp330
g62
(dp331
g89
g90
ssg71
g320
sg64
(lp332
S':'
asbag57
(g78
g59
NtRp333
(dp334
g62
(dp335
sg71
g320
sg64
(lp336
g57
(g58
g59
NtRp337
(dp338
g62
(dp339
g70
I4
ssg71
g333
sg64
(lp340
g57
(g66
g59
NtRp341
(dp342
g62
(dp343
g70
I3
ssg71
Nsg64
(lp344
sbasbasbasbag57
(g73
g59
NtRp345
(dp346
g62
(dp347
sg71
g272
sg64
(lp348
g57
(g78
g59
NtRp349
(dp350
g62
(dp351
g82
g83
ssg71
g345
sg64
(lp352
S'cmd_options'
p353
asbag57
(g78
g59
NtRp354
(dp355
g62
(dp356
g89
g90
ssg71
g345
sg64
(lp357
S':'
asbag57
(g78
g59
NtRp358
(dp359
g62
(dp360
sg71
g345
sg64
(lp361
g57
(g58
g59
NtRp362
(dp363
g62
(dp364
g70
I4
ssg71
g358
sg64
(lp365
S"<Values at 0x2b4ebd8: {'verbose': False, 'ip': '127.0.0.1', 'shutdown_timeout': 5, 'taskbar': False, 'nocron': False, 'pid_filename': 'httpserver.pid', 'maxthreads': None, 'softcron': False, 'server_name': 'JMT-webservices', 'bpython': False, 'nogui': False, 'port': 8000, 'extcron': False, 'debuglevel': 30, 'test': None, 'folder': '/var/www/jmtws/web2py', 'config': '', 'import_models': False, 'winservice': '', 'shell': None, 'run': '', 'log_filename': 'httpserver.log', 'args': [''], 'socket_timeout': 1, 'ssl_ca_certificate': None, 'scheduler': None, 'profiler_filename': None, 'ssl_private_key': '', 'password': 'admin', 'request_queue_size': 5, 'ssl_certificate': '', 'cronjob': False, 'numthreads': None, 'quiet': False, 'interfaces': None, 'minthreads': None, 'timeout': 10, 'plain': False, 'nobanner': False}>"
p366
asbasbasbag57
(g73
g59
NtRp367
(dp368
g62
(dp369
sg71
g272
sg64
(lp370
g57
(g78
g59
NtRp371
(dp372
g62
(dp373
g82
g83
ssg71
g367
sg64
(lp374
S'content_length'
p375
asbag57
(g78
g59
NtRp376
(dp377
g62
(dp378
g89
g90
ssg71
g367
sg64
(lp379
S':'
asbag57
(g78
g59
NtRp380
(dp381
g62
(dp382
sg71
g367
sg64
(lp383
g57
(g58
g59
NtRp384
(dp385
g62
(dp386
g70
I4
ssg71
g380
sg64
(lp387
S'3'
asbasbasbag57
(g73
g59
NtRp388
(dp389
g62
(dp390
sg71
g272
sg64
(lp391
g57
(g78
g59
NtRp392
(dp393
g62
(dp394
g82
g83
ssg71
g388
sg64
(lp395
S'content_type'
p396
asbag57
(g78
g59
NtRp397
(dp398
g62
(dp399
g89
g90
ssg71
g388
sg64
(lp400
S':'
asbag57
(g78
g59
NtRp401
(dp402
g62
(dp403
sg71
g388
sg64
(lp404
g57
(g58
g59
NtRp405
(dp406
g62
(dp407
g70
I4
ssg71
g401
sg64
(lp408
S'application/x-www-form-urlencoded'
p409
asbasbasbag57
(g73
g59
NtRp410
(dp411
g62
(dp412
sg71
g272
sg64
(lp413
g57
(g78
g59
NtRp414
(dp415
g62
(dp416
g82
g83
ssg71
g410
sg64
(lp417
S'db_sessions'
p418
asbag57
(g78
g59
NtRp419
(dp420
g62
(dp421
g89
g90
ssg71
g410
sg64
(lp422
S':'
asbag57
(g78
g59
NtRp423
(dp424
g62
(dp425
sg71
g410
sg64
(lp426
g57
(g58
g59
NtRp427
(dp428
g62
(dp429
g70
I4
ssg71
g423
sg64
(lp430
S'set([])'
p431
asbasbasbag57
(g73
g59
NtRp432
(dp433
g62
(dp434
sg71
g272
sg64
(lp435
g57
(g78
g59
NtRp436
(dp437
g62
(dp438
g82
g83
ssg71
g432
sg64
(lp439
S'debugging'
p440
asbag57
(g78
g59
NtRp441
(dp442
g62
(dp443
g89
g90
ssg71
g432
sg64
(lp444
S':'
asbag57
(g78
g59
NtRp445
(dp446
g62
(dp447
sg71
g432
sg64
(lp448
g57
(g58
g59
NtRp449
(dp450
g62
(dp451
g70
I4
ssg71
g445
sg64
(lp452
g100
asbasbasbag57
(g73
g59
NtRp453
(dp454
g62
(dp455
sg71
g272
sg64
(lp456
g57
(g78
g59
NtRp457
(dp458
g62
(dp459
g82
g83
ssg71
g453
sg64
(lp460
S'gluon_parent'
p461
asbag57
(g78
g59
NtRp462
(dp463
g62
(dp464
g89
g90
ssg71
g453
sg64
(lp465
S':'
asbag57
(g78
g59
NtRp466
(dp467
g62
(dp468
sg71
g453
sg64
(lp469
g57
(g58
g59
NtRp470
(dp471
g62
(dp472
g70
I4
ssg71
g466
sg64
(lp473
S'/var/www/jmtws/web2py'
p474
asbasbasbag57
(g73
g59
NtRp475
(dp476
g62
(dp477
sg71
g272
sg64
(lp478
g57
(g78
g59
NtRp479
(dp480
g62
(dp481
g82
g83
ssg71
g475
sg64
(lp482
S'http_accept'
p483
asbag57
(g78
g59
NtRp484
(dp485
g62
(dp486
g89
g90
ssg71
g475
sg64
(lp487
S':'
asbag57
(g78
g59
NtRp488
(dp489
g62
(dp490
sg71
g475
sg64
(lp491
g57
(g58
g59
NtRp492
(dp493
g62
(dp494
g70
I4
ssg71
g488
sg64
(lp495
S'*/*'
p496
asbasbasbag57
(g73
g59
NtRp497
(dp498
g62
(dp499
sg71
g272
sg64
(lp500
g57
(g78
g59
NtRp501
(dp502
g62
(dp503
g82
g83
ssg71
g497
sg64
(lp504
S'http_content_length'
p505
asbag57
(g78
g59
NtRp506
(dp507
g62
(dp508
g89
g90
ssg71
g497
sg64
(lp509
S':'
asbag57
(g78
g59
NtRp510
(dp511
g62
(dp512
sg71
g497
sg64
(lp513
g57
(g58
g59
NtRp514
(dp515
g62
(dp516
g70
I4
ssg71
g510
sg64
(lp517
S'3'
asbasbasbag57
(g73
g59
NtRp518
(dp519
g62
(dp520
sg71
g272
sg64
(lp521
g57
(g78
g59
NtRp522
(dp523
g62
(dp524
g82
g83
ssg71
g518
sg64
(lp525
S'http_content_type'
p526
asbag57
(g78
g59
NtRp527
(dp528
g62
(dp529
g89
g90
ssg71
g518
sg64
(lp530
S':'
asbag57
(g78
g59
NtRp531
(dp532
g62
(dp533
sg71
g518
sg64
(lp534
g57
(g58
g59
NtRp535
(dp536
g62
(dp537
g70
I4
ssg71
g531
sg64
(lp538
g409
asbasbasbag57
(g73
g59
NtRp539
(dp540
g62
(dp541
sg71
g272
sg64
(lp542
g57
(g78
g59
NtRp543
(dp544
g62
(dp545
g82
g83
ssg71
g539
sg64
(lp546
S'http_host'
p547
asbag57
(g78
g59
NtRp548
(dp549
g62
(dp550
g89
g90
ssg71
g539
sg64
(lp551
S':'
asbag57
(g78
g59
NtRp552
(dp553
g62
(dp554
sg71
g539
sg64
(lp555
g57
(g58
g59
NtRp556
(dp557
g62
(dp558
g70
I4
ssg71
g552
sg64
(lp559
S'localhost:8001'
p560
asbasbasbag57
(g73
g59
NtRp561
(dp562
g62
(dp563
sg71
g272
sg64
(lp564
g57
(g78
g59
NtRp565
(dp566
g62
(dp567
g82
g83
ssg71
g561
sg64
(lp568
S'http_user_agent'
p569
asbag57
(g78
g59
NtRp570
(dp571
g62
(dp572
g89
g90
ssg71
g561
sg64
(lp573
S':'
asbag57
(g78
g59
NtRp574
(dp575
g62
(dp576
sg71
g561
sg64
(lp577
g57
(g58
g59
NtRp578
(dp579
g62
(dp580
g70
I4
ssg71
g574
sg64
(lp581
S'curl/7.21.6 (x86_64-pc-linux-gnu) libcurl/7.21.6 OpenSSL/1.0.0e zlib/1.2.3.4 libidn/1.22 librtmp/2.3'
p582
asbasbasbag57
(g73
g59
NtRp583
(dp584
g62
(dp585
sg71
g272
sg64
(lp586
g57
(g78
g59
NtRp587
(dp588
g62
(dp589
g82
g83
ssg71
g583
sg64
(lp590
S'is_jython'
p591
asbag57
(g78
g59
NtRp592
(dp593
g62
(dp594
g89
g90
ssg71
g583
sg64
(lp595
S':'
asbag57
(g78
g59
NtRp596
(dp597
g62
(dp598
sg71
g583
sg64
(lp599
g57
(g58
g59
NtRp600
(dp601
g62
(dp602
g70
I4
ssg71
g596
sg64
(lp603
g100
asbasbasbag57
(g73
g59
NtRp604
(dp605
g62
(dp606
sg71
g272
sg64
(lp607
g57
(g78
g59
NtRp608
(dp609
g62
(dp610
g82
g83
ssg71
g604
sg64
(lp611
S'is_pypy'
p612
asbag57
(g78
g59
NtRp613
(dp614
g62
(dp615
g89
g90
ssg71
g604
sg64
(lp616
S':'
asbag57
(g78
g59
NtRp617
(dp618
g62
(dp619
sg71
g604
sg64
(lp620
g57
(g58
g59
NtRp621
(dp622
g62
(dp623
g70
I4
ssg71
g617
sg64
(lp624
g100
asbasbasbag57
(g73
g59
NtRp625
(dp626
g62
(dp627
sg71
g272
sg64
(lp628
g57
(g78
g59
NtRp629
(dp630
g62
(dp631
g82
g83
ssg71
g625
sg64
(lp632
S'path_info'
p633
asbag57
(g78
g59
NtRp634
(dp635
g62
(dp636
g89
g90
ssg71
g625
sg64
(lp637
S':'
asbag57
(g78
g59
NtRp638
(dp639
g62
(dp640
sg71
g625
sg64
(lp641
g57
(g58
g59
NtRp642
(dp643
g62
(dp644
g70
I4
ssg71
g638
sg64
(lp645
S'/jmtws/default/jmt/mva'
p646
asbasbasbag57
(g73
g59
NtRp647
(dp648
g62
(dp649
sg71
g272
sg64
(lp650
g57
(g78
g59
NtRp651
(dp652
g62
(dp653
g82
g83
ssg71
g647
sg64
(lp654
S'query_string'
p655
asbag57
(g78
g59
NtRp656
(dp657
g62
(dp658
g89
g90
ssg71
g647
sg64
(lp659
S':'
asbag57
(g78
g59
NtRp660
(dp661
g62
(dp662
sg71
g647
sg64
(lp663
g57
(g58
g59
NtRp664
(dp665
g62
(dp666
g70
I4
ssg71
g660
sg64
(lp667
S''
asbasbasbag57
(g73
g59
NtRp668
(dp669
g62
(dp670
sg71
g272
sg64
(lp671
g57
(g78
g59
NtRp672
(dp673
g62
(dp674
g82
g83
ssg71
g668
sg64
(lp675
S'remote_addr'
p676
asbag57
(g78
g59
NtRp677
(dp678
g62
(dp679
g89
g90
ssg71
g668
sg64
(lp680
S':'
asbag57
(g78
g59
NtRp681
(dp682
g62
(dp683
sg71
g668
sg64
(lp684
g57
(g58
g59
NtRp685
(dp686
g62
(dp687
g70
I4
ssg71
g681
sg64
(lp688
g203
asbasbasbag57
(g73
g59
NtRp689
(dp690
g62
(dp691
sg71
g272
sg64
(lp692
g57
(g78
g59
NtRp693
(dp694
g62
(dp695
g82
g83
ssg71
g689
sg64
(lp696
S'remote_port'
p697
asbag57
(g78
g59
NtRp698
(dp699
g62
(dp700
g89
g90
ssg71
g689
sg64
(lp701
S':'
asbag57
(g78
g59
NtRp702
(dp703
g62
(dp704
sg71
g689
sg64
(lp705
g57
(g58
g59
NtRp706
(dp707
g62
(dp708
g70
I4
ssg71
g702
sg64
(lp709
S'48315'
p710
asbasbasbag57
(g73
g59
NtRp711
(dp712
g62
(dp713
sg71
g272
sg64
(lp714
g57
(g78
g59
NtRp715
(dp716
g62
(dp717
g82
g83
ssg71
g711
sg64
(lp718
S'request_method'
p719
asbag57
(g78
g59
NtRp720
(dp721
g62
(dp722
g89
g90
ssg71
g711
sg64
(lp723
S':'
asbag57
(g78
g59
NtRp724
(dp725
g62
(dp726
sg71
g711
sg64
(lp727
g57
(g58
g59
NtRp728
(dp729
g62
(dp730
g70
I4
ssg71
g724
sg64
(lp731
S'POST'
p732
asbasbasbag57
(g73
g59
NtRp733
(dp734
g62
(dp735
sg71
g272
sg64
(lp736
g57
(g78
g59
NtRp737
(dp738
g62
(dp739
g82
g83
ssg71
g733
sg64
(lp740
S'script_name'
p741
asbag57
(g78
g59
NtRp742
(dp743
g62
(dp744
g89
g90
ssg71
g733
sg64
(lp745
S':'
asbag57
(g78
g59
NtRp746
(dp747
g62
(dp748
sg71
g733
sg64
(lp749
g57
(g58
g59
NtRp750
(dp751
g62
(dp752
g70
I4
ssg71
g746
sg64
(lp753
S''
asbasbasbag57
(g73
g59
NtRp754
(dp755
g62
(dp756
sg71
g272
sg64
(lp757
g57
(g78
g59
NtRp758
(dp759
g62
(dp760
g82
g83
ssg71
g754
sg64
(lp761
S'server_name'
p762
asbag57
(g78
g59
NtRp763
(dp764
g62
(dp765
g89
g90
ssg71
g754
sg64
(lp766
S':'
asbag57
(g78
g59
NtRp767
(dp768
g62
(dp769
sg71
g754
sg64
(lp770
g57
(g58
g59
NtRp771
(dp772
g62
(dp773
g70
I4
ssg71
g767
sg64
(lp774
S'JMT-webservices'
p775
asbasbasbag57
(g73
g59
NtRp776
(dp777
g62
(dp778
sg71
g272
sg64
(lp779
g57
(g78
g59
NtRp780
(dp781
g62
(dp782
g82
g83
ssg71
g776
sg64
(lp783
S'server_port'
p784
asbag57
(g78
g59
NtRp785
(dp786
g62
(dp787
g89
g90
ssg71
g776
sg64
(lp788
S':'
asbag57
(g78
g59
NtRp789
(dp790
g62
(dp791
sg71
g776
sg64
(lp792
g57
(g58
g59
NtRp793
(dp794
g62
(dp795
g70
I4
ssg71
g789
sg64
(lp796
S'8000'
p797
asbasbasbag57
(g73
g59
NtRp798
(dp799
g62
(dp800
sg71
g272
sg64
(lp801
g57
(g78
g59
NtRp802
(dp803
g62
(dp804
g82
g83
ssg71
g798
sg64
(lp805
S'server_protocol'
p806
asbag57
(g78
g59
NtRp807
(dp808
g62
(dp809
g89
g90
ssg71
g798
sg64
(lp810
S':'
asbag57
(g78
g59
NtRp811
(dp812
g62
(dp813
sg71
g798
sg64
(lp814
g57
(g58
g59
NtRp815
(dp816
g62
(dp817
g70
I4
ssg71
g811
sg64
(lp818
S'HTTP/1.1'
p819
asbasbasbag57
(g73
g59
NtRp820
(dp821
g62
(dp822
sg71
g272
sg64
(lp823
g57
(g78
g59
NtRp824
(dp825
g62
(dp826
g82
g83
ssg71
g820
sg64
(lp827
S'server_software'
p828
asbag57
(g78
g59
NtRp829
(dp830
g62
(dp831
g89
g90
ssg71
g820
sg64
(lp832
S':'
asbag57
(g78
g59
NtRp833
(dp834
g62
(dp835
sg71
g820
sg64
(lp836
g57
(g58
g59
NtRp837
(dp838
g62
(dp839
g70
I4
ssg71
g833
sg64
(lp840
S'Rocket 1.2.4'
p841
asbasbasbag57
(g73
g59
NtRp842
(dp843
g62
(dp844
sg71
g272
sg64
(lp845
g57
(g78
g59
NtRp846
(dp847
g62
(dp848
g82
g83
ssg71
g842
sg64
(lp849
S'web2py_crontype'
p850
asbag57
(g78
g59
NtRp851
(dp852
g62
(dp853
g89
g90
ssg71
g842
sg64
(lp854
S':'
asbag57
(g78
g59
NtRp855
(dp856
g62
(dp857
sg71
g842
sg64
(lp858
g57
(g58
g59
NtRp859
(dp860
g62
(dp861
g70
I4
ssg71
g855
sg64
(lp862
S'hard'
p863
asbasbasbag57
(g73
g59
NtRp864
(dp865
g62
(dp866
sg71
g272
sg64
(lp867
g57
(g78
g59
NtRp868
(dp869
g62
(dp870
g82
g83
ssg71
g864
sg64
(lp871
S'web2py_path'
p872
asbag57
(g78
g59
NtRp873
(dp874
g62
(dp875
g89
g90
ssg71
g864
sg64
(lp876
S':'
asbag57
(g78
g59
NtRp877
(dp878
g62
(dp879
sg71
g864
sg64
(lp880
g57
(g58
g59
NtRp881
(dp882
g62
(dp883
g70
I4
ssg71
g877
sg64
(lp884
g319
asbasbasbag57
(g73
g59
NtRp885
(dp886
g62
(dp887
sg71
g272
sg64
(lp888
g57
(g78
g59
NtRp889
(dp890
g62
(dp891
g82
g83
ssg71
g885
sg64
(lp892
S'web2py_version'
p893
asbag57
(g78
g59
NtRp894
(dp895
g62
(dp896
g89
g90
ssg71
g885
sg64
(lp897
S':'
asbag57
(g78
g59
NtRp898
(dp899
g62
(dp900
sg71
g885
sg64
(lp901
g57
(g58
g59
NtRp902
(dp903
g62
(dp904
g70
I4
ssg71
g898
sg64
(lp905
g57
(g66
g59
NtRp906
(dp907
g62
(dp908
g70
I3
ssg71
Nsg64
(lp909
g57
(g73
g59
NtRp910
(dp911
g62
(dp912
sg71
g906
sg64
(lp913
g57
(g78
g59
NtRp914
(dp915
g62
(dp916
sg71
g910
sg64
(lp917
g57
(g58
g59
NtRp918
(dp919
g62
(dp920
g70
I3
ssg71
g914
sg64
(lp921
S'1'
asbasbasbag57
(g73
g59
NtRp922
(dp923
g62
(dp924
sg71
g906
sg64
(lp925
g57
(g78
g59
NtRp926
(dp927
g62
(dp928
sg71
g922
sg64
(lp929
g57
(g58
g59
NtRp930
(dp931
g62
(dp932
g70
I3
ssg71
g926
sg64
(lp933
S'99'
p934
asbasbasbag57
(g73
g59
NtRp935
(dp936
g62
(dp937
sg71
g906
sg64
(lp938
g57
(g78
g59
NtRp939
(dp940
g62
(dp941
sg71
g935
sg64
(lp942
g57
(g58
g59
NtRp943
(dp944
g62
(dp945
g70
I3
ssg71
g939
sg64
(lp946
S'4'
asbasbasbag57
(g73
g59
NtRp947
(dp948
g62
(dp949
sg71
g906
sg64
(lp950
g57
(g78
g59
NtRp951
(dp952
g62
(dp953
sg71
g947
sg64
(lp954
g57
(g58
g59
NtRp955
(dp956
g62
(dp957
g70
I3
ssg71
g951
sg64
(lp958
S'datetime.datetime(2011, 12, 14, 14, 46, 14)'
p959
asbasbasbag57
(g73
g59
NtRp960
(dp961
g62
(dp962
sg71
g906
sg64
(lp963
g57
(g78
g59
NtRp964
(dp965
g62
(dp966
sg71
g960
sg64
(lp967
g57
(g58
g59
NtRp968
(dp969
g62
(dp970
g70
I3
ssg71
g964
sg64
(lp971
S'stable'
p972
asbasbasbasbasbasbasbag57
(g73
g59
NtRp973
(dp974
g62
(dp975
sg71
g272
sg64
(lp976
g57
(g78
g59
NtRp977
(dp978
g62
(dp979
g82
g83
ssg71
g973
sg64
(lp980
S'wsgi_errors'
p981
asbag57
(g78
g59
NtRp982
(dp983
g62
(dp984
g89
g90
ssg71
g973
sg64
(lp985
S':'
asbag57
(g78
g59
NtRp986
(dp987
g62
(dp988
sg71
g973
sg64
(lp989
g57
(g58
g59
NtRp990
(dp991
g62
(dp992
g70
I4
ssg71
g986
sg64
(lp993
S"<open file '<stderr>', mode 'w' at 0x7ff085940270>"
p994
asbasbasbag57
(g73
g59
NtRp995
(dp996
g62
(dp997
sg71
g272
sg64
(lp998
g57
(g78
g59
NtRp999
(dp1000
g62
(dp1001
g82
g83
ssg71
g995
sg64
(lp1002
S'wsgi_file_wrapper'
p1003
asbag57
(g78
g59
NtRp1004
(dp1005
g62
(dp1006
g89
g90
ssg71
g995
sg64
(lp1007
S':'
asbag57
(g78
g59
NtRp1008
(dp1009
g62
(dp1010
sg71
g995
sg64
(lp1011
g57
(g58
g59
NtRp1012
(dp1013
g62
(dp1014
g70
I4
ssg71
g1008
sg64
(lp1015
S'<class wsgiref.util.FileWrapper at 0x2a8b4c8>'
p1016
asbasbasbag57
(g73
g59
NtRp1017
(dp1018
g62
(dp1019
sg71
g272
sg64
(lp1020
g57
(g78
g59
NtRp1021
(dp1022
g62
(dp1023
g82
g83
ssg71
g1017
sg64
(lp1024
S'wsgi_input'
p1025
asbag57
(g78
g59
NtRp1026
(dp1027
g62
(dp1028
g89
g90
ssg71
g1017
sg64
(lp1029
S':'
asbag57
(g78
g59
NtRp1030
(dp1031
g62
(dp1032
sg71
g1017
sg64
(lp1033
g57
(g58
g59
NtRp1034
(dp1035
g62
(dp1036
g70
I4
ssg71
g1030
sg64
(lp1037
S'<socket._fileobject object at 0x30a4ed0>'
p1038
asbasbasbag57
(g73
g59
NtRp1039
(dp1040
g62
(dp1041
sg71
g272
sg64
(lp1042
g57
(g78
g59
NtRp1043
(dp1044
g62
(dp1045
g82
g83
ssg71
g1039
sg64
(lp1046
S'wsgi_multiprocess'
p1047
asbag57
(g78
g59
NtRp1048
(dp1049
g62
(dp1050
g89
g90
ssg71
g1039
sg64
(lp1051
S':'
asbag57
(g78
g59
NtRp1052
(dp1053
g62
(dp1054
sg71
g1039
sg64
(lp1055
g57
(g58
g59
NtRp1056
(dp1057
g62
(dp1058
g70
I4
ssg71
g1052
sg64
(lp1059
g100
asbasbasbag57
(g73
g59
NtRp1060
(dp1061
g62
(dp1062
sg71
g272
sg64
(lp1063
g57
(g78
g59
NtRp1064
(dp1065
g62
(dp1066
g82
g83
ssg71
g1060
sg64
(lp1067
S'wsgi_multithread'
p1068
asbag57
(g78
g59
NtRp1069
(dp1070
g62
(dp1071
g89
g90
ssg71
g1060
sg64
(lp1072
S':'
asbag57
(g78
g59
NtRp1073
(dp1074
g62
(dp1075
sg71
g1060
sg64
(lp1076
g57
(g58
g59
NtRp1077
(dp1078
g62
(dp1079
g70
I4
ssg71
g1073
sg64
(lp1080
S'True'
p1081
asbasbasbag57
(g73
g59
NtRp1082
(dp1083
g62
(dp1084
sg71
g272
sg64
(lp1085
g57
(g78
g59
NtRp1086
(dp1087
g62
(dp1088
g82
g83
ssg71
g1082
sg64
(lp1089
S'wsgi_run_once'
p1090
asbag57
(g78
g59
NtRp1091
(dp1092
g62
(dp1093
g89
g90
ssg71
g1082
sg64
(lp1094
S':'
asbag57
(g78
g59
NtRp1095
(dp1096
g62
(dp1097
sg71
g1082
sg64
(lp1098
g57
(g58
g59
NtRp1099
(dp1100
g62
(dp1101
g70
I4
ssg71
g1095
sg64
(lp1102
g100
asbasbasbag57
(g73
g59
NtRp1103
(dp1104
g62
(dp1105
sg71
g272
sg64
(lp1106
g57
(g78
g59
NtRp1107
(dp1108
g62
(dp1109
g82
g83
ssg71
g1103
sg64
(lp1110
S'wsgi_url_scheme'
p1111
asbag57
(g78
g59
NtRp1112
(dp1113
g62
(dp1114
g89
g90
ssg71
g1103
sg64
(lp1115
S':'
asbag57
(g78
g59
NtRp1116
(dp1117
g62
(dp1118
sg71
g1103
sg64
(lp1119
g57
(g58
g59
NtRp1120
(dp1121
g62
(dp1122
g70
I4
ssg71
g1116
sg64
(lp1123
S'http'
p1124
asbasbasbag57
(g73
g59
NtRp1125
(dp1126
g62
(dp1127
sg71
g272
sg64
(lp1128
g57
(g78
g59
NtRp1129
(dp1130
g62
(dp1131
g82
g83
ssg71
g1125
sg64
(lp1132
S'wsgi_version'
p1133
asbag57
(g78
g59
NtRp1134
(dp1135
g62
(dp1136
g89
g90
ssg71
g1125
sg64
(lp1137
S':'
asbag57
(g78
g59
NtRp1138
(dp1139
g62
(dp1140
sg71
g1125
sg64
(lp1141
g57
(g58
g59
NtRp1142
(dp1143
g62
(dp1144
g70
I4
ssg71
g1138
sg64
(lp1145
g57
(g66
g59
NtRp1146
(dp1147
g62
(dp1148
g70
I3
ssg71
Nsg64
(lp1149
g57
(g73
g59
NtRp1150
(dp1151
g62
(dp1152
sg71
g1146
sg64
(lp1153
g57
(g78
g59
NtRp1154
(dp1155
g62
(dp1156
sg71
g1150
sg64
(lp1157
g57
(g58
g59
NtRp1158
(dp1159
g62
(dp1160
g70
I3
ssg71
g1154
sg64
(lp1161
S'1'
asbasbasbag57
(g73
g59
NtRp1162
(dp1163
g62
(dp1164
sg71
g1146
sg64
(lp1165
g57
(g78
g59
NtRp1166
(dp1167
g62
(dp1168
sg71
g1162
sg64
(lp1169
g57
(g58
g59
NtRp1170
(dp1171
g62
(dp1172
g70
I3
ssg71
g1166
sg64
(lp1173
S'0'
asbasbasbasbasbasbasbasbasbasbasbag57
(g73
g59
NtRp1174
(dp1175
g62
(dp1176
sg71
g67
sg64
(lp1177
g57
(g78
g59
NtRp1178
(dp1179
g62
(dp1180
g82
g83
ssg71
g1174
sg64
(lp1181
S'extension'
p1182
asbag57
(g78
g59
NtRp1183
(dp1184
g62
(dp1185
g89
g90
ssg71
g1174
sg64
(lp1186
S':'
asbag57
(g78
g59
NtRp1187
(dp1188
g62
(dp1189
sg71
g1174
sg64
(lp1190
g57
(g58
g59
NtRp1191
(dp1192
g62
(dp1193
g70
I5
ssg71
g1187
sg64
(lp1194
S'html'
p1195
asbasbasbag57
(g73
g59
NtRp1196
(dp1197
g62
(dp1198
sg71
g67
sg64
(lp1199
g57
(g78
g59
NtRp1200
(dp1201
g62
(dp1202
g82
g83
ssg71
g1196
sg64
(lp1203
S'folder'
p1204
asbag57
(g78
g59
NtRp1205
(dp1206
g62
(dp1207
g89
g90
ssg71
g1196
sg64
(lp1208
S':'
asbag57
(g78
g59
NtRp1209
(dp1210
g62
(dp1211
sg71
g1196
sg64
(lp1212
g57
(g58
g59
NtRp1213
(dp1214
g62
(dp1215
g70
I5
ssg71
g1209
sg64
(lp1216
S'/var/www/jmtws/web2py/applications/jmtws/'
p1217
asbasbasbag57
(g73
g59
NtRp1218
(dp1219
g62
(dp1220
sg71
g67
sg64
(lp1221
g57
(g78
g59
NtRp1222
(dp1223
g62
(dp1224
g82
g83
ssg71
g1218
sg64
(lp1225
S'function'
p1226
asbag57
(g78
g59
NtRp1227
(dp1228
g62
(dp1229
g89
g90
ssg71
g1218
sg64
(lp1230
S':'
asbag57
(g78
g59
NtRp1231
(dp1232
g62
(dp1233
sg71
g1218
sg64
(lp1234
g57
(g58
g59
NtRp1235
(dp1236
g62
(dp1237
g70
I5
ssg71
g1231
sg64
(lp1238
S'jmt'
p1239
asbasbasbag57
(g73
g59
NtRp1240
(dp1241
g62
(dp1242
sg71
g67
sg64
(lp1243
g57
(g78
g59
NtRp1244
(dp1245
g62
(dp1246
g82
g83
ssg71
g1240
sg64
(lp1247
S'get_vars'
p1248
asbag57
(g78
g59
NtRp1249
(dp1250
g62
(dp1251
g89
g90
ssg71
g1240
sg64
(lp1252
S':'
asbag57
(g78
g59
NtRp1253
(dp1254
g62
(dp1255
sg71
g1240
sg64
(lp1256
g57
(g58
g59
NtRp1257
(dp1258
g62
(dp1259
g70
I5
ssg71
g1253
sg64
(lp1260
g57
(g66
g59
NtRp1261
(dp1262
g62
(dp1263
g70
I4
ssg71
Nsg64
(lp1264
sbasbasbasbag57
(g73
g59
NtRp1265
(dp1266
g62
(dp1267
sg71
g67
sg64
(lp1268
g57
(g78
g59
NtRp1269
(dp1270
g62
(dp1271
g82
g83
ssg71
g1265
sg64
(lp1272
S'global_settings'
p1273
asbag57
(g78
g59
NtRp1274
(dp1275
g62
(dp1276
g89
g90
ssg71
g1265
sg64
(lp1277
S':'
asbag57
(g78
g59
NtRp1278
(dp1279
g62
(dp1280
sg71
g1265
sg64
(lp1281
g57
(g58
g59
NtRp1282
(dp1283
g62
(dp1284
g70
I5
ssg71
g1278
sg64
(lp1285
g57
(g66
g59
NtRp1286
(dp1287
g62
(dp1288
g70
I4
ssg71
Nsg64
(lp1289
g57
(g73
g59
NtRp1290
(dp1291
g62
(dp1292
sg71
g1286
sg64
(lp1293
g57
(g78
g59
NtRp1294
(dp1295
g62
(dp1296
g82
g83
ssg71
g1290
sg64
(lp1297
g284
asbag57
(g78
g59
NtRp1298
(dp1299
g62
(dp1300
g89
g90
ssg71
g1290
sg64
(lp1301
S':'
asbag57
(g78
g59
NtRp1302
(dp1303
g62
(dp1304
sg71
g1290
sg64
(lp1305
g57
(g58
g59
NtRp1306
(dp1307
g62
(dp1308
g70
I4
ssg71
g1302
sg64
(lp1309
S"set(['/var/www/jmtws/web2py/applications/jmtws/', '/var/www/jmtws/web2py/applications/admin/', '/var/www/jmtws/web2py/applications/welcome/'])"
p1310
asbasbasbag57
(g73
g59
NtRp1311
(dp1312
g62
(dp1313
sg71
g1286
sg64
(lp1314
g57
(g78
g59
NtRp1315
(dp1316
g62
(dp1317
g82
g83
ssg71
g1311
sg64
(lp1318
g306
asbag57
(g78
g59
NtRp1319
(dp1320
g62
(dp1321
g89
g90
ssg71
g1311
sg64
(lp1322
S':'
asbag57
(g78
g59
NtRp1323
(dp1324
g62
(dp1325
sg71
g1311
sg64
(lp1326
g57
(g58
g59
NtRp1327
(dp1328
g62
(dp1329
g70
I4
ssg71
g1323
sg64
(lp1330
g319
asbasbasbag57
(g73
g59
NtRp1331
(dp1332
g62
(dp1333
sg71
g1286
sg64
(lp1334
g57
(g78
g59
NtRp1335
(dp1336
g62
(dp1337
g82
g83
ssg71
g1331
sg64
(lp1338
g328
asbag57
(g78
g59
NtRp1339
(dp1340
g62
(dp1341
g89
g90
ssg71
g1331
sg64
(lp1342
S':'
asbag57
(g78
g59
NtRp1343
(dp1344
g62
(dp1345
sg71
g1331
sg64
(lp1346
g57
(g58
g59
NtRp1347
(dp1348
g62
(dp1349
g70
I4
ssg71
g1343
sg64
(lp1350
g57
(g66
g59
NtRp1351
(dp1352
g62
(dp1353
g70
I3
ssg71
Nsg64
(lp1354
sbasbasbasbag57
(g73
g59
NtRp1355
(dp1356
g62
(dp1357
sg71
g1286
sg64
(lp1358
g57
(g78
g59
NtRp1359
(dp1360
g62
(dp1361
g82
g83
ssg71
g1355
sg64
(lp1362
g353
asbag57
(g78
g59
NtRp1363
(dp1364
g62
(dp1365
g89
g90
ssg71
g1355
sg64
(lp1366
S':'
asbag57
(g78
g59
NtRp1367
(dp1368
g62
(dp1369
sg71
g1355
sg64
(lp1370
g57
(g58
g59
NtRp1371
(dp1372
g62
(dp1373
g70
I4
ssg71
g1367
sg64
(lp1374
S"<Values at 0x2b4ebd8: {'verbose': False, 'ip': '127.0.0.1', 'shutdown_timeout': 5, 'taskbar': False, 'nocron': False, 'pid_filename': 'httpserver.pid', 'maxthreads': None, 'softcron': False, 'server_name': 'JMT-webservices', 'bpython': False, 'nogui': False, 'port': 8000, 'extcron': False, 'debuglevel': 30, 'test': None, 'folder': '/var/www/jmtws/web2py', 'config': '', 'import_models': False, 'winservice': '', 'shell': None, 'run': '', 'log_filename': 'httpserver.log', 'args': [''], 'socket_timeout': 1, 'ssl_ca_certificate': None, 'scheduler': None, 'profiler_filename': None, 'ssl_private_key': '', 'password': 'admin', 'request_queue_size': 5, 'ssl_certificate': '', 'cronjob': False, 'numthreads': None, 'quiet': False, 'interfaces': None, 'minthreads': None, 'timeout': 10, 'plain': False, 'nobanner': False}>"
p1375
asbasbasbag57
(g73
g59
NtRp1376
(dp1377
g62
(dp1378
sg71
g1286
sg64
(lp1379
g57
(g78
g59
NtRp1380
(dp1381
g62
(dp1382
g82
g83
ssg71
g1376
sg64
(lp1383
g418
asbag57
(g78
g59
NtRp1384
(dp1385
g62
(dp1386
g89
g90
ssg71
g1376
sg64
(lp1387
S':'
asbag57
(g78
g59
NtRp1388
(dp1389
g62
(dp1390
sg71
g1376
sg64
(lp1391
g57
(g58
g59
NtRp1392
(dp1393
g62
(dp1394
g70
I4
ssg71
g1388
sg64
(lp1395
S'set([])'
p1396
asbasbasbag57
(g73
g59
NtRp1397
(dp1398
g62
(dp1399
sg71
g1286
sg64
(lp1400
g57
(g78
g59
NtRp1401
(dp1402
g62
(dp1403
g82
g83
ssg71
g1397
sg64
(lp1404
g440
asbag57
(g78
g59
NtRp1405
(dp1406
g62
(dp1407
g89
g90
ssg71
g1397
sg64
(lp1408
S':'
asbag57
(g78
g59
NtRp1409
(dp1410
g62
(dp1411
sg71
g1397
sg64
(lp1412
g57
(g58
g59
NtRp1413
(dp1414
g62
(dp1415
g70
I4
ssg71
g1409
sg64
(lp1416
g100
asbasbasbag57
(g73
g59
NtRp1417
(dp1418
g62
(dp1419
sg71
g1286
sg64
(lp1420
g57
(g78
g59
NtRp1421
(dp1422
g62
(dp1423
g82
g83
ssg71
g1417
sg64
(lp1424
g461
asbag57
(g78
g59
NtRp1425
(dp1426
g62
(dp1427
g89
g90
ssg71
g1417
sg64
(lp1428
S':'
asbag57
(g78
g59
NtRp1429
(dp1430
g62
(dp1431
sg71
g1417
sg64
(lp1432
g57
(g58
g59
NtRp1433
(dp1434
g62
(dp1435
g70
I4
ssg71
g1429
sg64
(lp1436
g474
asbasbasbag57
(g73
g59
NtRp1437
(dp1438
g62
(dp1439
sg71
g1286
sg64
(lp1440
g57
(g78
g59
NtRp1441
(dp1442
g62
(dp1443
g82
g83
ssg71
g1437
sg64
(lp1444
g591
asbag57
(g78
g59
NtRp1445
(dp1446
g62
(dp1447
g89
g90
ssg71
g1437
sg64
(lp1448
S':'
asbag57
(g78
g59
NtRp1449
(dp1450
g62
(dp1451
sg71
g1437
sg64
(lp1452
g57
(g58
g59
NtRp1453
(dp1454
g62
(dp1455
g70
I4
ssg71
g1449
sg64
(lp1456
g100
asbasbasbag57
(g73
g59
NtRp1457
(dp1458
g62
(dp1459
sg71
g1286
sg64
(lp1460
g57
(g78
g59
NtRp1461
(dp1462
g62
(dp1463
g82
g83
ssg71
g1457
sg64
(lp1464
g612
asbag57
(g78
g59
NtRp1465
(dp1466
g62
(dp1467
g89
g90
ssg71
g1457
sg64
(lp1468
S':'
asbag57
(g78
g59
NtRp1469
(dp1470
g62
(dp1471
sg71
g1457
sg64
(lp1472
g57
(g58
g59
NtRp1473
(dp1474
g62
(dp1475
g70
I4
ssg71
g1469
sg64
(lp1476
g100
asbasbasbag57
(g73
g59
NtRp1477
(dp1478
g62
(dp1479
sg71
g1286
sg64
(lp1480
g57
(g78
g59
NtRp1481
(dp1482
g62
(dp1483
g82
g83
ssg71
g1477
sg64
(lp1484
g850
asbag57
(g78
g59
NtRp1485
(dp1486
g62
(dp1487
g89
g90
ssg71
g1477
sg64
(lp1488
S':'
asbag57
(g78
g59
NtRp1489
(dp1490
g62
(dp1491
sg71
g1477
sg64
(lp1492
g57
(g58
g59
NtRp1493
(dp1494
g62
(dp1495
g70
I4
ssg71
g1489
sg64
(lp1496
g863
asbasbasbag57
(g73
g59
NtRp1497
(dp1498
g62
(dp1499
sg71
g1286
sg64
(lp1500
g57
(g78
g59
NtRp1501
(dp1502
g62
(dp1503
g82
g83
ssg71
g1497
sg64
(lp1504
g893
asbag57
(g78
g59
NtRp1505
(dp1506
g62
(dp1507
g89
g90
ssg71
g1497
sg64
(lp1508
S':'
asbag57
(g78
g59
NtRp1509
(dp1510
g62
(dp1511
sg71
g1497
sg64
(lp1512
g57
(g58
g59
NtRp1513
(dp1514
g62
(dp1515
g70
I4
ssg71
g1509
sg64
(lp1516
g57
(g66
g59
NtRp1517
(dp1518
g62
(dp1519
g70
I3
ssg71
Nsg64
(lp1520
g57
(g73
g59
NtRp1521
(dp1522
g62
(dp1523
sg71
g1517
sg64
(lp1524
g57
(g78
g59
NtRp1525
(dp1526
g62
(dp1527
sg71
g1521
sg64
(lp1528
g57
(g58
g59
NtRp1529
(dp1530
g62
(dp1531
g70
I3
ssg71
g1525
sg64
(lp1532
S'1'
asbasbasbag57
(g73
g59
NtRp1533
(dp1534
g62
(dp1535
sg71
g1517
sg64
(lp1536
g57
(g78
g59
NtRp1537
(dp1538
g62
(dp1539
sg71
g1533
sg64
(lp1540
g57
(g58
g59
NtRp1541
(dp1542
g62
(dp1543
g70
I3
ssg71
g1537
sg64
(lp1544
S'99'
p1545
asbasbasbag57
(g73
g59
NtRp1546
(dp1547
g62
(dp1548
sg71
g1517
sg64
(lp1549
g57
(g78
g59
NtRp1550
(dp1551
g62
(dp1552
sg71
g1546
sg64
(lp1553
g57
(g58
g59
NtRp1554
(dp1555
g62
(dp1556
g70
I3
ssg71
g1550
sg64
(lp1557
S'4'
asbasbasbag57
(g73
g59
NtRp1558
(dp1559
g62
(dp1560
sg71
g1517
sg64
(lp1561
g57
(g78
g59
NtRp1562
(dp1563
g62
(dp1564
sg71
g1558
sg64
(lp1565
g57
(g58
g59
NtRp1566
(dp1567
g62
(dp1568
g70
I3
ssg71
g1562
sg64
(lp1569
S'datetime.datetime(2011, 12, 14, 14, 46, 14)'
p1570
asbasbasbag57
(g73
g59
NtRp1571
(dp1572
g62
(dp1573
sg71
g1517
sg64
(lp1574
g57
(g78
g59
NtRp1575
(dp1576
g62
(dp1577
sg71
g1571
sg64
(lp1578
g57
(g58
g59
NtRp1579
(dp1580
g62
(dp1581
g70
I3
ssg71
g1575
sg64
(lp1582
g972
asbasbasbasbasbasbasbasbasbasbasbag57
(g73
g59
NtRp1583
(dp1584
g62
(dp1585
sg71
g67
sg64
(lp1586
g57
(g78
g59
NtRp1587
(dp1588
g62
(dp1589
g82
g83
ssg71
g1583
sg64
(lp1590
S'is_https'
p1591
asbag57
(g78
g59
NtRp1592
(dp1593
g62
(dp1594
g89
g90
ssg71
g1583
sg64
(lp1595
S':'
asbag57
(g78
g59
NtRp1596
(dp1597
g62
(dp1598
sg71
g1583
sg64
(lp1599
g57
(g58
g59
NtRp1600
(dp1601
g62
(dp1602
g70
I5
ssg71
g1596
sg64
(lp1603
g100
asbasbasbag57
(g73
g59
NtRp1604
(dp1605
g62
(dp1606
sg71
g67
sg64
(lp1607
g57
(g78
g59
NtRp1608
(dp1609
g62
(dp1610
g82
g83
ssg71
g1604
sg64
(lp1611
S'is_local'
p1612
asbag57
(g78
g59
NtRp1613
(dp1614
g62
(dp1615
g89
g90
ssg71
g1604
sg64
(lp1616
S':'
asbag57
(g78
g59
NtRp1617
(dp1618
g62
(dp1619
sg71
g1604
sg64
(lp1620
g57
(g58
g59
NtRp1621
(dp1622
g62
(dp1623
g70
I5
ssg71
g1617
sg64
(lp1624
g1081
asbasbasbag57
(g73
g59
NtRp1625
(dp1626
g62
(dp1627
sg71
g67
sg64
(lp1628
g57
(g78
g59
NtRp1629
(dp1630
g62
(dp1631
g82
g83
ssg71
g1625
sg64
(lp1632
S'is_restful'
p1633
asbag57
(g78
g59
NtRp1634
(dp1635
g62
(dp1636
g89
g90
ssg71
g1625
sg64
(lp1637
S':'
asbag57
(g78
g59
NtRp1638
(dp1639
g62
(dp1640
sg71
g1625
sg64
(lp1641
g57
(g58
g59
NtRp1642
(dp1643
g62
(dp1644
g70
I5
ssg71
g1638
sg64
(lp1645
g1081
asbasbasbag57
(g73
g59
NtRp1646
(dp1647
g62
(dp1648
sg71
g67
sg64
(lp1649
g57
(g78
g59
NtRp1650
(dp1651
g62
(dp1652
g82
g83
ssg71
g1646
sg64
(lp1653
S'now'
p1654
asbag57
(g78
g59
NtRp1655
(dp1656
g62
(dp1657
g89
g90
ssg71
g1646
sg64
(lp1658
S':'
asbag57
(g78
g59
NtRp1659
(dp1660
g62
(dp1661
sg71
g1646
sg64
(lp1662
g57
(g58
g59
NtRp1663
(dp1664
g62
(dp1665
g70
I5
ssg71
g1659
sg64
(lp1666
S'datetime.datetime(2011, 12, 23, 1, 42, 20, 608007)'
p1667
asbasbasbag57
(g73
g59
NtRp1668
(dp1669
g62
(dp1670
sg71
g67
sg64
(lp1671
g57
(g78
g59
NtRp1672
(dp1673
g62
(dp1674
g82
g83
ssg71
g1668
sg64
(lp1675
S'post_vars'
p1676
asbag57
(g78
g59
NtRp1677
(dp1678
g62
(dp1679
g89
g90
ssg71
g1668
sg64
(lp1680
S':'
asbag57
(g78
g59
NtRp1681
(dp1682
g62
(dp1683
sg71
g1668
sg64
(lp1684
g57
(g58
g59
NtRp1685
(dp1686
g62
(dp1687
g70
I5
ssg71
g1681
sg64
(lp1688
g57
(g66
g59
NtRp1689
(dp1690
g62
(dp1691
g70
I4
ssg71
Nsg64
(lp1692
g57
(g73
g59
NtRp1693
(dp1694
g62
(dp1695
sg71
g1689
sg64
(lp1696
g57
(g78
g59
NtRp1697
(dp1698
g62
(dp1699
g82
g83
ssg71
g1693
sg64
(lp1700
S'a:a'
p1701
asbag57
(g78
g59
NtRp1702
(dp1703
g62
(dp1704
g89
g90
ssg71
g1693
sg64
(lp1705
S':'
asbag57
(g78
g59
NtRp1706
(dp1707
g62
(dp1708
sg71
g1693
sg64
(lp1709
g57
(g58
g59
NtRp1710
(dp1711
g62
(dp1712
g70
I4
ssg71
g1706
sg64
(lp1713
S''
asbasbasbasbasbasbasbag57
(g73
g59
NtRp1714
(dp1715
g62
(dp1716
sg71
g67
sg64
(lp1717
g57
(g78
g59
NtRp1718
(dp1719
g62
(dp1720
g82
g83
ssg71
g1714
sg64
(lp1721
S'raw_args'
p1722
asbag57
(g78
g59
NtRp1723
(dp1724
g62
(dp1725
g89
g90
ssg71
g1714
sg64
(lp1726
S':'
asbag57
(g78
g59
NtRp1727
(dp1728
g62
(dp1729
sg71
g1714
sg64
(lp1730
g57
(g58
g59
NtRp1731
(dp1732
g62
(dp1733
g70
I5
ssg71
g1727
sg64
(lp1734
g159
asbasbasbag57
(g73
g59
NtRp1735
(dp1736
g62
(dp1737
sg71
g67
sg64
(lp1738
g57
(g78
g59
NtRp1739
(dp1740
g62
(dp1741
g82
g83
ssg71
g1735
sg64
(lp1742
S'url'
p1743
asbag57
(g78
g59
NtRp1744
(dp1745
g62
(dp1746
g89
g90
ssg71
g1735
sg64
(lp1747
S':'
asbag57
(g78
g59
NtRp1748
(dp1749
g62
(dp1750
sg71
g1735
sg64
(lp1751
g57
(g58
g59
NtRp1752
(dp1753
g62
(dp1754
g70
I5
ssg71
g1748
sg64
(lp1755
S'/jmtws/default/jmt/mva'
p1756
asbasbasbag57
(g73
g59
NtRp1757
(dp1758
g62
(dp1759
sg71
g67
sg64
(lp1760
g57
(g78
g59
NtRp1761
(dp1762
g62
(dp1763
g82
g83
ssg71
g1757
sg64
(lp1764
S'utcnow'
p1765
asbag57
(g78
g59
NtRp1766
(dp1767
g62
(dp1768
g89
g90
ssg71
g1757
sg64
(lp1769
S':'
asbag57
(g78
g59
NtRp1770
(dp1771
g62
(dp1772
sg71
g1757
sg64
(lp1773
g57
(g58
g59
NtRp1774
(dp1775
g62
(dp1776
g70
I5
ssg71
g1770
sg64
(lp1777
S'datetime.datetime(2011, 12, 23, 0, 42, 20, 608026)'
p1778
asbasbasbag57
(g73
g59
NtRp1779
(dp1780
g62
(dp1781
sg71
g67
sg64
(lp1782
g57
(g78
g59
NtRp1783
(dp1784
g62
(dp1785
g82
g83
ssg71
g1779
sg64
(lp1786
S'uuid'
p1787
asbag57
(g78
g59
NtRp1788
(dp1789
g62
(dp1790
g89
g90
ssg71
g1779
sg64
(lp1791
S':'
asbag57
(g78
g59
NtRp1792
(dp1793
g62
(dp1794
sg71
g1779
sg64
(lp1795
g57
(g58
g59
NtRp1796
(dp1797
g62
(dp1798
g70
I5
ssg71
g1792
sg64
(lp1799
S'jmtws/127.0.0.1.2011-12-23.01-42-20.02cefc72-c519-4c99-9715-a1e426590806'
p1800
asbasbasbag57
(g73
g59
NtRp1801
(dp1802
g62
(dp1803
sg71
g67
sg64
(lp1804
g57
(g78
g59
NtRp1805
(dp1806
g62
(dp1807
g82
g83
ssg71
g1801
sg64
(lp1808
S'vars'
p1809
asbag57
(g78
g59
NtRp1810
(dp1811
g62
(dp1812
g89
g90
ssg71
g1801
sg64
(lp1813
S':'
asbag57
(g78
g59
NtRp1814
(dp1815
g62
(dp1816
sg71
g1801
sg64
(lp1817
g57
(g58
g59
NtRp1818
(dp1819
g62
(dp1820
g70
I5
ssg71
g1814
sg64
(lp1821
g57
(g66
g59
NtRp1822
(dp1823
g62
(dp1824
g70
I4
ssg71
Nsg64
(lp1825
g57
(g73
g59
NtRp1826
(dp1827
g62
(dp1828
sg71
g1822
sg64
(lp1829
g57
(g78
g59
NtRp1830
(dp1831
g62
(dp1832
g82
g83
ssg71
g1826
sg64
(lp1833
g1701
asbag57
(g78
g59
NtRp1834
(dp1835
g62
(dp1836
g89
g90
ssg71
g1826
sg64
(lp1837
S':'
asbag57
(g78
g59
NtRp1838
(dp1839
g62
(dp1840
sg71
g1826
sg64
(lp1841
g57
(g58
g59
NtRp1842
(dp1843
g62
(dp1844
g70
I4
ssg71
g1838
sg64
(lp1845
S''
asbasbasbasbasbasbasbag57
(g73
g59
NtRp1846
(dp1847
g62
(dp1848
sg71
g67
sg64
(lp1849
g57
(g78
g59
NtRp1850
(dp1851
g62
(dp1852
g82
g83
ssg71
g1846
sg64
(lp1853
S'wsgi'
p1854
asbag57
(g78
g59
NtRp1855
(dp1856
g62
(dp1857
g89
g90
ssg71
g1846
sg64
(lp1858
S':'
asbag57
(g78
g59
NtRp1859
(dp1860
g62
(dp1861
sg71
g1846
sg64
(lp1862
g57
(g58
g59
NtRp1863
(dp1864
g62
(dp1865
g70
I5
ssg71
g1859
sg64
(lp1866
g57
(g66
g59
NtRp1867
(dp1868
g62
(dp1869
g70
I4
ssg71
Nsg64
(lp1870
g57
(g73
g59
NtRp1871
(dp1872
g62
(dp1873
sg71
g1867
sg64
(lp1874
g57
(g78
g59
NtRp1875
(dp1876
g62
(dp1877
g82
g83
ssg71
g1871
sg64
(lp1878
S'environ'
p1879
asbag57
(g78
g59
NtRp1880
(dp1881
g62
(dp1882
g89
g90
ssg71
g1871
sg64
(lp1883
S':'
asbag57
(g78
g59
NtRp1884
(dp1885
g62
(dp1886
sg71
g1871
sg64
(lp1887
g57
(g58
g59
NtRp1888
(dp1889
g62
(dp1890
g70
I4
ssg71
g1884
sg64
(lp1891
g57
(g66
g59
NtRp1892
(dp1893
g62
(dp1894
g70
I3
ssg71
Nsg64
(lp1895
g57
(g73
g59
NtRp1896
(dp1897
g62
(dp1898
sg71
g1892
sg64
(lp1899
g57
(g78
g59
NtRp1900
(dp1901
g62
(dp1902
g82
g83
ssg71
g1896
sg64
(lp1903
S'CONTENT_LENGTH'
p1904
asbag57
(g78
g59
NtRp1905
(dp1906
g62
(dp1907
g89
g90
ssg71
g1896
sg64
(lp1908
S':'
asbag57
(g78
g59
NtRp1909
(dp1910
g62
(dp1911
sg71
g1896
sg64
(lp1912
g57
(g58
g59
NtRp1913
(dp1914
g62
(dp1915
g70
I3
ssg71
g1909
sg64
(lp1916
S'3'
asbasbasbag57
(g73
g59
NtRp1917
(dp1918
g62
(dp1919
sg71
g1892
sg64
(lp1920
g57
(g78
g59
NtRp1921
(dp1922
g62
(dp1923
g82
g83
ssg71
g1917
sg64
(lp1924
S'CONTENT_TYPE'
p1925
asbag57
(g78
g59
NtRp1926
(dp1927
g62
(dp1928
g89
g90
ssg71
g1917
sg64
(lp1929
S':'
asbag57
(g78
g59
NtRp1930
(dp1931
g62
(dp1932
sg71
g1917
sg64
(lp1933
g57
(g58
g59
NtRp1934
(dp1935
g62
(dp1936
g70
I3
ssg71
g1930
sg64
(lp1937
g409
asbasbasbag57
(g73
g59
NtRp1938
(dp1939
g62
(dp1940
sg71
g1892
sg64
(lp1941
g57
(g78
g59
NtRp1942
(dp1943
g62
(dp1944
g82
g83
ssg71
g1938
sg64
(lp1945
S'HTTP_ACCEPT'
p1946
asbag57
(g78
g59
NtRp1947
(dp1948
g62
(dp1949
g89
g90
ssg71
g1938
sg64
(lp1950
S':'
asbag57
(g78
g59
NtRp1951
(dp1952
g62
(dp1953
sg71
g1938
sg64
(lp1954
g57
(g58
g59
NtRp1955
(dp1956
g62
(dp1957
g70
I3
ssg71
g1951
sg64
(lp1958
g496
asbasbasbag57
(g73
g59
NtRp1959
(dp1960
g62
(dp1961
sg71
g1892
sg64
(lp1962
g57
(g78
g59
NtRp1963
(dp1964
g62
(dp1965
g82
g83
ssg71
g1959
sg64
(lp1966
S'HTTP_CONTENT_LENGTH'
p1967
asbag57
(g78
g59
NtRp1968
(dp1969
g62
(dp1970
g89
g90
ssg71
g1959
sg64
(lp1971
S':'
asbag57
(g78
g59
NtRp1972
(dp1973
g62
(dp1974
sg71
g1959
sg64
(lp1975
g57
(g58
g59
NtRp1976
(dp1977
g62
(dp1978
g70
I3
ssg71
g1972
sg64
(lp1979
S'3'
asbasbasbag57
(g73
g59
NtRp1980
(dp1981
g62
(dp1982
sg71
g1892
sg64
(lp1983
g57
(g78
g59
NtRp1984
(dp1985
g62
(dp1986
g82
g83
ssg71
g1980
sg64
(lp1987
S'HTTP_CONTENT_TYPE'
p1988
asbag57
(g78
g59
NtRp1989
(dp1990
g62
(dp1991
g89
g90
ssg71
g1980
sg64
(lp1992
S':'
asbag57
(g78
g59
NtRp1993
(dp1994
g62
(dp1995
sg71
g1980
sg64
(lp1996
g57
(g58
g59
NtRp1997
(dp1998
g62
(dp1999
g70
I3
ssg71
g1993
sg64
(lp2000
g409
asbasbasbag57
(g73
g59
NtRp2001
(dp2002
g62
(dp2003
sg71
g1892
sg64
(lp2004
g57
(g78
g59
NtRp2005
(dp2006
g62
(dp2007
g82
g83
ssg71
g2001
sg64
(lp2008
S'HTTP_HOST'
p2009
asbag57
(g78
g59
NtRp2010
(dp2011
g62
(dp2012
g89
g90
ssg71
g2001
sg64
(lp2013
S':'
asbag57
(g78
g59
NtRp2014
(dp2015
g62
(dp2016
sg71
g2001
sg64
(lp2017
g57
(g58
g59
NtRp2018
(dp2019
g62
(dp2020
g70
I3
ssg71
g2014
sg64
(lp2021
g560
asbasbasbag57
(g73
g59
NtRp2022
(dp2023
g62
(dp2024
sg71
g1892
sg64
(lp2025
g57
(g78
g59
NtRp2026
(dp2027
g62
(dp2028
g82
g83
ssg71
g2022
sg64
(lp2029
S'HTTP_USER_AGENT'
p2030
asbag57
(g78
g59
NtRp2031
(dp2032
g62
(dp2033
g89
g90
ssg71
g2022
sg64
(lp2034
S':'
asbag57
(g78
g59
NtRp2035
(dp2036
g62
(dp2037
sg71
g2022
sg64
(lp2038
g57
(g58
g59
NtRp2039
(dp2040
g62
(dp2041
g70
I3
ssg71
g2035
sg64
(lp2042
g582
asbasbasbag57
(g73
g59
NtRp2043
(dp2044
g62
(dp2045
sg71
g1892
sg64
(lp2046
g57
(g78
g59
NtRp2047
(dp2048
g62
(dp2049
g82
g83
ssg71
g2043
sg64
(lp2050
S'PATH_INFO'
p2051
asbag57
(g78
g59
NtRp2052
(dp2053
g62
(dp2054
g89
g90
ssg71
g2043
sg64
(lp2055
S':'
asbag57
(g78
g59
NtRp2056
(dp2057
g62
(dp2058
sg71
g2043
sg64
(lp2059
g57
(g58
g59
NtRp2060
(dp2061
g62
(dp2062
g70
I3
ssg71
g2056
sg64
(lp2063
g646
asbasbasbag57
(g73
g59
NtRp2064
(dp2065
g62
(dp2066
sg71
g1892
sg64
(lp2067
g57
(g78
g59
NtRp2068
(dp2069
g62
(dp2070
g82
g83
ssg71
g2064
sg64
(lp2071
S'QUERY_STRING'
p2072
asbag57
(g78
g59
NtRp2073
(dp2074
g62
(dp2075
g89
g90
ssg71
g2064
sg64
(lp2076
S':'
asbag57
(g78
g59
NtRp2077
(dp2078
g62
(dp2079
sg71
g2064
sg64
(lp2080
g57
(g58
g59
NtRp2081
(dp2082
g62
(dp2083
g70
I3
ssg71
g2077
sg64
(lp2084
S''
asbasbasbag57
(g73
g59
NtRp2085
(dp2086
g62
(dp2087
sg71
g1892
sg64
(lp2088
g57
(g78
g59
NtRp2089
(dp2090
g62
(dp2091
g82
g83
ssg71
g2085
sg64
(lp2092
S'REMOTE_ADDR'
p2093
asbag57
(g78
g59
NtRp2094
(dp2095
g62
(dp2096
g89
g90
ssg71
g2085
sg64
(lp2097
S':'
asbag57
(g78
g59
NtRp2098
(dp2099
g62
(dp2100
sg71
g2085
sg64
(lp2101
g57
(g58
g59
NtRp2102
(dp2103
g62
(dp2104
g70
I3
ssg71
g2098
sg64
(lp2105
g203
asbasbasbag57
(g73
g59
NtRp2106
(dp2107
g62
(dp2108
sg71
g1892
sg64
(lp2109
g57
(g78
g59
NtRp2110
(dp2111
g62
(dp2112
g82
g83
ssg71
g2106
sg64
(lp2113
S'REMOTE_PORT'
p2114
asbag57
(g78
g59
NtRp2115
(dp2116
g62
(dp2117
g89
g90
ssg71
g2106
sg64
(lp2118
S':'
asbag57
(g78
g59
NtRp2119
(dp2120
g62
(dp2121
sg71
g2106
sg64
(lp2122
g57
(g58
g59
NtRp2123
(dp2124
g62
(dp2125
g70
I3
ssg71
g2119
sg64
(lp2126
g710
asbasbasbag57
(g73
g59
NtRp2127
(dp2128
g62
(dp2129
sg71
g1892
sg64
(lp2130
g57
(g78
g59
NtRp2131
(dp2132
g62
(dp2133
g82
g83
ssg71
g2127
sg64
(lp2134
S'REQUEST_METHOD'
p2135
asbag57
(g78
g59
NtRp2136
(dp2137
g62
(dp2138
g89
g90
ssg71
g2127
sg64
(lp2139
S':'
asbag57
(g78
g59
NtRp2140
(dp2141
g62
(dp2142
sg71
g2127
sg64
(lp2143
g57
(g58
g59
NtRp2144
(dp2145
g62
(dp2146
g70
I3
ssg71
g2140
sg64
(lp2147
g732
asbasbasbag57
(g73
g59
NtRp2148
(dp2149
g62
(dp2150
sg71
g1892
sg64
(lp2151
g57
(g78
g59
NtRp2152
(dp2153
g62
(dp2154
g82
g83
ssg71
g2148
sg64
(lp2155
S'SCRIPT_NAME'
p2156
asbag57
(g78
g59
NtRp2157
(dp2158
g62
(dp2159
g89
g90
ssg71
g2148
sg64
(lp2160
S':'
asbag57
(g78
g59
NtRp2161
(dp2162
g62
(dp2163
sg71
g2148
sg64
(lp2164
g57
(g58
g59
NtRp2165
(dp2166
g62
(dp2167
g70
I3
ssg71
g2161
sg64
(lp2168
S''
asbasbasbag57
(g73
g59
NtRp2169
(dp2170
g62
(dp2171
sg71
g1892
sg64
(lp2172
g57
(g78
g59
NtRp2173
(dp2174
g62
(dp2175
g82
g83
ssg71
g2169
sg64
(lp2176
S'SERVER_NAME'
p2177
asbag57
(g78
g59
NtRp2178
(dp2179
g62
(dp2180
g89
g90
ssg71
g2169
sg64
(lp2181
S':'
asbag57
(g78
g59
NtRp2182
(dp2183
g62
(dp2184
sg71
g2169
sg64
(lp2185
g57
(g58
g59
NtRp2186
(dp2187
g62
(dp2188
g70
I3
ssg71
g2182
sg64
(lp2189
g775
asbasbasbag57
(g73
g59
NtRp2190
(dp2191
g62
(dp2192
sg71
g1892
sg64
(lp2193
g57
(g78
g59
NtRp2194
(dp2195
g62
(dp2196
g82
g83
ssg71
g2190
sg64
(lp2197
S'SERVER_PORT'
p2198
asbag57
(g78
g59
NtRp2199
(dp2200
g62
(dp2201
g89
g90
ssg71
g2190
sg64
(lp2202
S':'
asbag57
(g78
g59
NtRp2203
(dp2204
g62
(dp2205
sg71
g2190
sg64
(lp2206
g57
(g58
g59
NtRp2207
(dp2208
g62
(dp2209
g70
I3
ssg71
g2203
sg64
(lp2210
g797
asbasbasbag57
(g73
g59
NtRp2211
(dp2212
g62
(dp2213
sg71
g1892
sg64
(lp2214
g57
(g78
g59
NtRp2215
(dp2216
g62
(dp2217
g82
g83
ssg71
g2211
sg64
(lp2218
S'SERVER_PROTOCOL'
p2219
asbag57
(g78
g59
NtRp2220
(dp2221
g62
(dp2222
g89
g90
ssg71
g2211
sg64
(lp2223
S':'
asbag57
(g78
g59
NtRp2224
(dp2225
g62
(dp2226
sg71
g2211
sg64
(lp2227
g57
(g58
g59
NtRp2228
(dp2229
g62
(dp2230
g70
I3
ssg71
g2224
sg64
(lp2231
g819
asbasbasbag57
(g73
g59
NtRp2232
(dp2233
g62
(dp2234
sg71
g1892
sg64
(lp2235
g57
(g78
g59
NtRp2236
(dp2237
g62
(dp2238
g82
g83
ssg71
g2232
sg64
(lp2239
S'SERVER_SOFTWARE'
p2240
asbag57
(g78
g59
NtRp2241
(dp2242
g62
(dp2243
g89
g90
ssg71
g2232
sg64
(lp2244
S':'
asbag57
(g78
g59
NtRp2245
(dp2246
g62
(dp2247
sg71
g2232
sg64
(lp2248
g57
(g58
g59
NtRp2249
(dp2250
g62
(dp2251
g70
I3
ssg71
g2245
sg64
(lp2252
g841
asbasbasbag57
(g73
g59
NtRp2253
(dp2254
g62
(dp2255
sg71
g1892
sg64
(lp2256
g57
(g78
g59
NtRp2257
(dp2258
g62
(dp2259
g82
g83
ssg71
g2253
sg64
(lp2260
S'wsgi.errors'
p2261
asbag57
(g78
g59
NtRp2262
(dp2263
g62
(dp2264
g89
g90
ssg71
g2253
sg64
(lp2265
S':'
asbag57
(g78
g59
NtRp2266
(dp2267
g62
(dp2268
sg71
g2253
sg64
(lp2269
g57
(g58
g59
NtRp2270
(dp2271
g62
(dp2272
g70
I3
ssg71
g2266
sg64
(lp2273
S"<open file '<stderr>', mode 'w' at 0x7ff085940270>"
p2274
asbasbasbag57
(g73
g59
NtRp2275
(dp2276
g62
(dp2277
sg71
g1892
sg64
(lp2278
g57
(g78
g59
NtRp2279
(dp2280
g62
(dp2281
g82
g83
ssg71
g2275
sg64
(lp2282
S'wsgi.file_wrapper'
p2283
asbag57
(g78
g59
NtRp2284
(dp2285
g62
(dp2286
g89
g90
ssg71
g2275
sg64
(lp2287
S':'
asbag57
(g78
g59
NtRp2288
(dp2289
g62
(dp2290
sg71
g2275
sg64
(lp2291
g57
(g58
g59
NtRp2292
(dp2293
g62
(dp2294
g70
I3
ssg71
g2288
sg64
(lp2295
S'<class wsgiref.util.FileWrapper at 0x2a8b4c8>'
p2296
asbasbasbag57
(g73
g59
NtRp2297
(dp2298
g62
(dp2299
sg71
g1892
sg64
(lp2300
g57
(g78
g59
NtRp2301
(dp2302
g62
(dp2303
g82
g83
ssg71
g2297
sg64
(lp2304
S'wsgi.input'
p2305
asbag57
(g78
g59
NtRp2306
(dp2307
g62
(dp2308
g89
g90
ssg71
g2297
sg64
(lp2309
S':'
asbag57
(g78
g59
NtRp2310
(dp2311
g62
(dp2312
sg71
g2297
sg64
(lp2313
g57
(g58
g59
NtRp2314
(dp2315
g62
(dp2316
g70
I3
ssg71
g2310
sg64
(lp2317
S"<open file '<fdopen>', mode 'w+b' at 0x2d2e390>"
p2318
asbasbasbag57
(g73
g59
NtRp2319
(dp2320
g62
(dp2321
sg71
g1892
sg64
(lp2322
g57
(g78
g59
NtRp2323
(dp2324
g62
(dp2325
g82
g83
ssg71
g2319
sg64
(lp2326
S'wsgi.multiprocess'
p2327
asbag57
(g78
g59
NtRp2328
(dp2329
g62
(dp2330
g89
g90
ssg71
g2319
sg64
(lp2331
S':'
asbag57
(g78
g59
NtRp2332
(dp2333
g62
(dp2334
sg71
g2319
sg64
(lp2335
g57
(g58
g59
NtRp2336
(dp2337
g62
(dp2338
g70
I3
ssg71
g2332
sg64
(lp2339
g100
asbasbasbag57
(g73
g59
NtRp2340
(dp2341
g62
(dp2342
sg71
g1892
sg64
(lp2343
g57
(g78
g59
NtRp2344
(dp2345
g62
(dp2346
g82
g83
ssg71
g2340
sg64
(lp2347
S'wsgi.multithread'
p2348
asbag57
(g78
g59
NtRp2349
(dp2350
g62
(dp2351
g89
g90
ssg71
g2340
sg64
(lp2352
S':'
asbag57
(g78
g59
NtRp2353
(dp2354
g62
(dp2355
sg71
g2340
sg64
(lp2356
g57
(g58
g59
NtRp2357
(dp2358
g62
(dp2359
g70
I3
ssg71
g2353
sg64
(lp2360
g1081
asbasbasbag57
(g73
g59
NtRp2361
(dp2362
g62
(dp2363
sg71
g1892
sg64
(lp2364
g57
(g78
g59
NtRp2365
(dp2366
g62
(dp2367
g82
g83
ssg71
g2361
sg64
(lp2368
S'wsgi.run_once'
p2369
asbag57
(g78
g59
NtRp2370
(dp2371
g62
(dp2372
g89
g90
ssg71
g2361
sg64
(lp2373
S':'
asbag57
(g78
g59
NtRp2374
(dp2375
g62
(dp2376
sg71
g2361
sg64
(lp2377
g57
(g58
g59
NtRp2378
(dp2379
g62
(dp2380
g70
I3
ssg71
g2374
sg64
(lp2381
g100
asbasbasbag57
(g73
g59
NtRp2382
(dp2383
g62
(dp2384
sg71
g1892
sg64
(lp2385
g57
(g78
g59
NtRp2386
(dp2387
g62
(dp2388
g82
g83
ssg71
g2382
sg64
(lp2389
S'wsgi.url_scheme'
p2390
asbag57
(g78
g59
NtRp2391
(dp2392
g62
(dp2393
g89
g90
ssg71
g2382
sg64
(lp2394
S':'
asbag57
(g78
g59
NtRp2395
(dp2396
g62
(dp2397
sg71
g2382
sg64
(lp2398
g57
(g58
g59
NtRp2399
(dp2400
g62
(dp2401
g70
I3
ssg71
g2395
sg64
(lp2402
g1124
asbasbasbag57
(g73
g59
NtRp2403
(dp2404
g62
(dp2405
sg71
g1892
sg64
(lp2406
g57
(g78
g59
NtRp2407
(dp2408
g62
(dp2409
g82
g83
ssg71
g2403
sg64
(lp2410
S'wsgi.version'
p2411
asbag57
(g78
g59
NtRp2412
(dp2413
g62
(dp2414
g89
g90
ssg71
g2403
sg64
(lp2415
S':'
asbag57
(g78
g59
NtRp2416
(dp2417
g62
(dp2418
sg71
g2403
sg64
(lp2419
g57
(g58
g59
NtRp2420
(dp2421
g62
(dp2422
g70
I3
ssg71
g2416
sg64
(lp2423
S'1'
asbasbasbasbasbasbasbasbasbasbasbasbasbsS'frames'
p2424
(lp2425
(dp2426
S'file'
p2427
S'/var/www/jmtws/web2py/gluon/restricted.py'
p2428
sS'dump'
p2429
(dp2430
S'environment'
p2431
S"{'A': <class 'gluon.html.A'>, 'Auth': <class 'gluon.tools.Auth'>, 'B': <class 'gluon.html.B'>, 'BEAUTIFY': <class 'gluon.html.BEAUTIFY'>, 'BODY': <class 'gluon.html.BODY'>, 'BR': <class 'gluon.html.BR'>, 'BUTTON': <class 'gluon.html.BUTTON'>, 'CAT': <class 'gluon.html.CAT'>, 'CENTER': <class 'gluon.html.CENTER'>, 'CLEANUP': <class 'gluon.validators.CLEANUP'>, ...}"
p2432
sS'ccode'
p2433
S'<code object <module> at 0x2fc1c30, file "/var/w...lications/jmtws/controllers/default.py", line 20>'
p2434
ssS'lnum'
p2435
I204
sS'lines'
p2436
(dp2437
I199
S'    try:'
p2438
sI200
S'        if type(code) == types.CodeType:'
p2439
sI201
S'            ccode = code'
p2440
sI202
S'        else:'
p2441
sI203
S'            ccode = compile2(code,layer)'
p2442
sI204
S'        exec ccode in environment'
p2443
sI205
S'    except HTTP:'
p2444
sI206
S'        raise'
p2445
sI207
S'    except RestrictedError:'
p2446
sI208
S'        # do not encapsulate (obfuscate) the original RestrictedError'
p2447
ssS'call'
p2448
S"(code='# -*- coding: utf-8 -*-\\n# this file is released ...rm=crud())\\n\\nresponse._vars=response._caller(jmt)\\n', environment={'A': <class 'gluon.html.A'>, 'Auth': <class 'gluon.tools.Auth'>, 'B': <class 'gluon.html.B'>, 'BEAUTIFY': <class 'gluon.html.BEAUTIFY'>, 'BODY': <class 'gluon.html.BODY'>, 'BR': <class 'gluon.html.BR'>, 'BUTTON': <class 'gluon.html.BUTTON'>, 'CAT': <class 'gluon.html.CAT'>, 'CENTER': <class 'gluon.html.CENTER'>, 'CLEANUP': <class 'gluon.validators.CLEANUP'>, ...}, layer='/var/www/jmtws/web2py/applications/jmtws/controllers/default.py')"
p2449
sS'func'
p2450
S'restricted'
p2451
sa(dp2452
g2427
S'/var/www/jmtws/web2py/applications/jmtws/controllers/default.py'
p2453
sg2429
(dp2454
sg2435
I103
sg2436
(dp2455
I96
S'    but URLs must be signed, i.e. linked with'
p2456
sI97
S"      A('table',_href=URL('data/tables',user_signature=True))"
p2457
sI98
S'    or with the signed load operator'
p2458
sI99
S"      LOAD('default','data.load',args='tables',ajax=True,user_signature=True)"
p2459
sI100
S'    """'
p2460
sI101
S'    return dict(form=crud())'
p2461
sI92
S'    http://..../[app]/default/data/update/[table]/[id]'
p2462
sI93
S'    http://..../[app]/default/data/delete/[table]/[id]'
p2463
sI94
S'    http://..../[app]/default/data/select/[table]'
p2464
sI95
S'    http://..../[app]/default/data/search/[table]'
p2465
ssg2448
S'()'
p2466
sg2450
S'<module>'
p2467
sa(dp2468
g2427
S'/var/www/jmtws/web2py/gluon/globals.py'
p2469
sg2429
(dp2470
S'self'
p2471
S'undefined'
p2472
sS'f'
S'<function jmt>'
p2473
ssg2435
I172
sg2436
(dp2474
I167
S'        self.meta = Storage()      # used by web2py_ajax.html'
p2475
sI168
S'        self.menu = []             # used by the default view layout'
p2476
sI169
S'        self.files = []            # used by web2py_ajax.html'
p2477
sI170
S'        self.generic_patterns = [] # patterns to allow generic views'
p2478
sI171
S'        self._vars = None'
p2479
sI172
S'        self._caller = lambda f: f()'
p2480
sI173
S'        self._view_environment = None'
p2481
sI174
S'        self._custom_commit = None'
p2482
sI175
S'        self._custom_rollback = None'
p2483
sI176
S''
ssg2448
S'(f=<function jmt>)'
p2484
sg2450
S'<lambda>'
p2485
sa(dp2486
g2427
S'/var/www/jmtws/web2py/gluon/globals.py'
p2487
sg2429
(dp2488
S'rest_action'
p2489
S'<function POST>'
p2490
sS'_self'
p2491
S"<Storage {'body': <open file '<fdopen>', mode 'w...Storage {}>, 'post_vars': <Storage {'a:a': ''}>}>"
p2492
sS'_self.args'
p2493
S"['mva']"
p2494
sS'_self.vars'
p2495
S"<Storage {'a:a': ''}>"
p2496
ssg2435
I138
sg2436
(dp2497
I133
S'                    raise HTTP(400,"invalid method")'
p2498
sI134
S'                rest_action = _action().get(method,None)'
p2499
sI135
S'                if not rest_action:'
p2500
sI136
S'                    raise HTTP(400,"method not supported")'
p2501
sI137
S'                try:'
p2502
sI138
S'                    return rest_action(*_self.args,**_self.vars)'
p2503
sI139
S'                except TypeError, e:'
p2504
sI140
S'                    exc_type, exc_value, exc_traceback = sys.exc_info()'
p2505
sI141
S'                    if len(traceback.extract_tb(exc_traceback))==1:'
p2506
sI142
S'                        raise HTTP(400,"invalid arguments")'
p2507
ssg2448
S"(_action=<function jmt>, _self=<Storage {'body': <open file '<fdopen>', mode 'w...Storage {}>, 'post_vars': <Storage {'a:a': ''}>}>, *a=(), **b={})"
p2508
sg2450
S'f'
sa(dp2509
g2427
S'/var/www/jmtws/web2py/applications/jmtws/controllers/default.py'
p2510
sg2429
(dp2511
S'args'
p2512
S"('mva',)"
p2513
sS'mode'
p2514
g2472
ssg2435
I34
sg2436
(dp2515
I32
S"        message = 'ok'"
p2516
sI33
S'        result = False'
p2517
sI34
S'        mode = args[1]'
p2518
sI35
S"        xml = vars.get('xml')"
p2519
sI36
S'        print mode'
p2520
sI37
S'        if not mode:'
p2521
sI38
S"            message = T('You have to select between mva or sim')"
p2522
sI29
S"    response.view = 'generic.json'"
p2523
sI30
S'    def POST(*args,**vars):'
p2524
sI31
S'        print args, vars'
p2525
ssg2448
S"(*args=('mva',), **vars={'a:a': ''})"
p2526
sg2450
S'POST'
p2527
sasS'pyver'
p2528
S'Python 2.7.2+: /usr/bin/python'
p2529
sS'session'
p2530
g57
(g58
g59
NtRp2531
(dp2532
g62
(dp2533
sg64
(lp2534
g57
(g66
g59
NtRp2535
(dp2536
g62
(dp2537
g70
I5
ssg71
Nsg64
(lp2538
sbasbsS'etype'
p2539
S"<type 'exceptions.IndexError'>"
p2540
sS'date'
p2541
S'Fri Dec 23 01:42:20 2011'
p2542
sS'response'
p2543
g57
(g58
g59
NtRp2544
(dp2545
g62
(dp2546
sg64
(lp2547
g57
(g66
g59
NtRp2548
(dp2549
g62
(dp2550
g70
I5
ssg71
Nsg64
(lp2551
g57
(g73
g59
NtRp2552
(dp2553
g62
(dp2554
sg71
g2548
sg64
(lp2555
g57
(g78
g59
NtRp2556
(dp2557
g62
(dp2558
g82
g83
ssg71
g2552
sg64
(lp2559
g168
asbag57
(g78
g59
NtRp2560
(dp2561
g62
(dp2562
g89
g90
ssg71
g2552
sg64
(lp2563
S':'
asbag57
(g78
g59
NtRp2564
(dp2565
g62
(dp2566
sg71
g2552
sg64
(lp2567
g57
(g58
g59
NtRp2568
(dp2569
g62
(dp2570
g70
I5
ssg71
g2564
sg64
(lp2571
S'<cStringIO.StringO object at 0x34f68b8>'
p2572
asbasbasbag57
(g73
g59
NtRp2573
(dp2574
g62
(dp2575
sg71
g2548
sg64
(lp2576
g57
(g78
g59
NtRp2577
(dp2578
g62
(dp2579
g82
g83
ssg71
g2573
sg64
(lp2580
g234
asbag57
(g78
g59
NtRp2581
(dp2582
g62
(dp2583
g89
g90
ssg71
g2573
sg64
(lp2584
S':'
asbag57
(g78
g59
NtRp2585
(dp2586
g62
(dp2587
sg71
g2573
sg64
(lp2588
g57
(g58
g59
NtRp2589
(dp2590
g62
(dp2591
g70
I5
ssg71
g2585
sg64
(lp2592
g57
(g66
g59
NtRp2593
(dp2594
g62
(dp2595
g70
I4
ssg71
Nsg64
(lp2596
g57
(g73
g59
NtRp2597
(dp2598
g62
(dp2599
sg71
g2593
sg64
(lp2600
g57
(g78
g59
NtRp2601
(dp2602
g62
(dp2603
g82
g83
ssg71
g2597
sg64
(lp2604
S'session_id_jmtws'
p2605
asbag57
(g78
g59
NtRp2606
(dp2607
g62
(dp2608
g89
g90
ssg71
g2597
sg64
(lp2609
S':'
asbag57
(g78
g59
NtRp2610
(dp2611
g62
(dp2612
sg71
g2597
sg64
(lp2613
g57
(g58
g59
NtRp2614
(dp2615
g62
(dp2616
g70
I4
ssg71
g2610
sg64
(lp2617
g57
(g66
g59
NtRp2618
(dp2619
g62
(dp2620
g70
I3
ssg71
Nsg64
(lp2621
g57
(g73
g59
NtRp2622
(dp2623
g62
(dp2624
sg71
g2618
sg64
(lp2625
g57
(g78
g59
NtRp2626
(dp2627
g62
(dp2628
g82
g83
ssg71
g2622
sg64
(lp2629
S'comment'
p2630
asbag57
(g78
g59
NtRp2631
(dp2632
g62
(dp2633
g89
g90
ssg71
g2622
sg64
(lp2634
S':'
asbag57
(g78
g59
NtRp2635
(dp2636
g62
(dp2637
sg71
g2622
sg64
(lp2638
g57
(g58
g59
NtRp2639
(dp2640
g62
(dp2641
g70
I3
ssg71
g2635
sg64
(lp2642
S''
asbasbasbag57
(g73
g59
NtRp2643
(dp2644
g62
(dp2645
sg71
g2618
sg64
(lp2646
g57
(g78
g59
NtRp2647
(dp2648
g62
(dp2649
g82
g83
ssg71
g2643
sg64
(lp2650
S'domain'
p2651
asbag57
(g78
g59
NtRp2652
(dp2653
g62
(dp2654
g89
g90
ssg71
g2643
sg64
(lp2655
S':'
asbag57
(g78
g59
NtRp2656
(dp2657
g62
(dp2658
sg71
g2643
sg64
(lp2659
g57
(g58
g59
NtRp2660
(dp2661
g62
(dp2662
g70
I3
ssg71
g2656
sg64
(lp2663
S''
asbasbasbag57
(g73
g59
NtRp2664
(dp2665
g62
(dp2666
sg71
g2618
sg64
(lp2667
g57
(g78
g59
NtRp2668
(dp2669
g62
(dp2670
g82
g83
ssg71
g2664
sg64
(lp2671
S'expires'
p2672
asbag57
(g78
g59
NtRp2673
(dp2674
g62
(dp2675
g89
g90
ssg71
g2664
sg64
(lp2676
S':'
asbag57
(g78
g59
NtRp2677
(dp2678
g62
(dp2679
sg71
g2664
sg64
(lp2680
g57
(g58
g59
NtRp2681
(dp2682
g62
(dp2683
g70
I3
ssg71
g2677
sg64
(lp2684
S''
asbasbasbag57
(g73
g59
NtRp2685
(dp2686
g62
(dp2687
sg71
g2618
sg64
(lp2688
g57
(g78
g59
NtRp2689
(dp2690
g62
(dp2691
g82
g83
ssg71
g2685
sg64
(lp2692
S'httponly'
p2693
asbag57
(g78
g59
NtRp2694
(dp2695
g62
(dp2696
g89
g90
ssg71
g2685
sg64
(lp2697
S':'
asbag57
(g78
g59
NtRp2698
(dp2699
g62
(dp2700
sg71
g2685
sg64
(lp2701
g57
(g58
g59
NtRp2702
(dp2703
g62
(dp2704
g70
I3
ssg71
g2698
sg64
(lp2705
S''
asbasbasbag57
(g73
g59
NtRp2706
(dp2707
g62
(dp2708
sg71
g2618
sg64
(lp2709
g57
(g78
g59
NtRp2710
(dp2711
g62
(dp2712
g82
g83
ssg71
g2706
sg64
(lp2713
S'max-age'
p2714
asbag57
(g78
g59
NtRp2715
(dp2716
g62
(dp2717
g89
g90
ssg71
g2706
sg64
(lp2718
S':'
asbag57
(g78
g59
NtRp2719
(dp2720
g62
(dp2721
sg71
g2706
sg64
(lp2722
g57
(g58
g59
NtRp2723
(dp2724
g62
(dp2725
g70
I3
ssg71
g2719
sg64
(lp2726
S''
asbasbasbag57
(g73
g59
NtRp2727
(dp2728
g62
(dp2729
sg71
g2618
sg64
(lp2730
g57
(g78
g59
NtRp2731
(dp2732
g62
(dp2733
g82
g83
ssg71
g2727
sg64
(lp2734
S'path'
p2735
asbag57
(g78
g59
NtRp2736
(dp2737
g62
(dp2738
g89
g90
ssg71
g2727
sg64
(lp2739
S':'
asbag57
(g78
g59
NtRp2740
(dp2741
g62
(dp2742
sg71
g2727
sg64
(lp2743
g57
(g58
g59
NtRp2744
(dp2745
g62
(dp2746
g70
I3
ssg71
g2740
sg64
(lp2747
S'/'
asbasbasbag57
(g73
g59
NtRp2748
(dp2749
g62
(dp2750
sg71
g2618
sg64
(lp2751
g57
(g78
g59
NtRp2752
(dp2753
g62
(dp2754
g82
g83
ssg71
g2748
sg64
(lp2755
S'secure'
p2756
asbag57
(g78
g59
NtRp2757
(dp2758
g62
(dp2759
g89
g90
ssg71
g2748
sg64
(lp2760
S':'
asbag57
(g78
g59
NtRp2761
(dp2762
g62
(dp2763
sg71
g2748
sg64
(lp2764
g57
(g58
g59
NtRp2765
(dp2766
g62
(dp2767
g70
I3
ssg71
g2761
sg64
(lp2768
S''
asbasbasbag57
(g73
g59
NtRp2769
(dp2770
g62
(dp2771
sg71
g2618
sg64
(lp2772
g57
(g78
g59
NtRp2773
(dp2774
g62
(dp2775
g82
g83
ssg71
g2769
sg64
(lp2776
S'version'
p2777
asbag57
(g78
g59
NtRp2778
(dp2779
g62
(dp2780
g89
g90
ssg71
g2769
sg64
(lp2781
S':'
asbag57
(g78
g59
NtRp2782
(dp2783
g62
(dp2784
sg71
g2769
sg64
(lp2785
g57
(g58
g59
NtRp2786
(dp2787
g62
(dp2788
g70
I3
ssg71
g2782
sg64
(lp2789
S''
asbasbasbasbasbasbasbasbasbasbasbag57
(g73
g59
NtRp2790
(dp2791
g62
(dp2792
sg71
g2548
sg64
(lp2793
g57
(g78
g59
NtRp2794
(dp2795
g62
(dp2796
g82
g83
ssg71
g2790
sg64
(lp2797
S'files'
p2798
asbag57
(g78
g59
NtRp2799
(dp2800
g62
(dp2801
g89
g90
ssg71
g2790
sg64
(lp2802
S':'
asbag57
(g78
g59
NtRp2803
(dp2804
g62
(dp2805
sg71
g2790
sg64
(lp2806
g57
(g58
g59
NtRp2807
(dp2808
g62
(dp2809
g70
I5
ssg71
g2803
sg64
(lp2810
g57
(g66
g59
NtRp2811
(dp2812
g62
(dp2813
g70
I4
ssg71
Nsg64
(lp2814
sbasbasbasbag57
(g73
g59
NtRp2815
(dp2816
g62
(dp2817
sg71
g2548
sg64
(lp2818
g57
(g78
g59
NtRp2819
(dp2820
g62
(dp2821
g82
g83
ssg71
g2815
sg64
(lp2822
S'flash'
p2823
asbag57
(g78
g59
NtRp2824
(dp2825
g62
(dp2826
g89
g90
ssg71
g2815
sg64
(lp2827
S':'
asbag57
(g78
g59
NtRp2828
(dp2829
g62
(dp2830
sg71
g2815
sg64
(lp2831
g57
(g58
g59
NtRp2832
(dp2833
g62
(dp2834
g70
I5
ssg71
g2828
sg64
(lp2835
S''
asbasbasbag57
(g73
g59
NtRp2836
(dp2837
g62
(dp2838
sg71
g2548
sg64
(lp2839
g57
(g78
g59
NtRp2840
(dp2841
g62
(dp2842
g82
g83
ssg71
g2836
sg64
(lp2843
S'generic_patterns'
p2844
asbag57
(g78
g59
NtRp2845
(dp2846
g62
(dp2847
g89
g90
ssg71
g2836
sg64
(lp2848
S':'
asbag57
(g78
g59
NtRp2849
(dp2850
g62
(dp2851
sg71
g2836
sg64
(lp2852
g57
(g58
g59
NtRp2853
(dp2854
g62
(dp2855
g70
I5
ssg71
g2849
sg64
(lp2856
g57
(g66
g59
NtRp2857
(dp2858
g62
(dp2859
g70
I4
ssg71
Nsg64
(lp2860
g57
(g73
g59
NtRp2861
(dp2862
g62
(dp2863
sg71
g2857
sg64
(lp2864
g57
(g78
g59
NtRp2865
(dp2866
g62
(dp2867
sg71
g2861
sg64
(lp2868
g57
(g58
g59
NtRp2869
(dp2870
g62
(dp2871
g70
I4
ssg71
g2865
sg64
(lp2872
S'*'
asbasbasbasbasbasbasbag57
(g73
g59
NtRp2873
(dp2874
g62
(dp2875
sg71
g2548
sg64
(lp2876
g57
(g78
g59
NtRp2877
(dp2878
g62
(dp2879
g82
g83
ssg71
g2873
sg64
(lp2880
S'headers'
p2881
asbag57
(g78
g59
NtRp2882
(dp2883
g62
(dp2884
g89
g90
ssg71
g2873
sg64
(lp2885
S':'
asbag57
(g78
g59
NtRp2886
(dp2887
g62
(dp2888
sg71
g2873
sg64
(lp2889
g57
(g58
g59
NtRp2890
(dp2891
g62
(dp2892
g70
I5
ssg71
g2886
sg64
(lp2893
g57
(g66
g59
NtRp2894
(dp2895
g62
(dp2896
g70
I4
ssg71
Nsg64
(lp2897
g57
(g73
g59
NtRp2898
(dp2899
g62
(dp2900
sg71
g2894
sg64
(lp2901
g57
(g78
g59
NtRp2902
(dp2903
g62
(dp2904
g82
g83
ssg71
g2898
sg64
(lp2905
S'Cache-Control'
p2906
asbag57
(g78
g59
NtRp2907
(dp2908
g62
(dp2909
g89
g90
ssg71
g2898
sg64
(lp2910
S':'
asbag57
(g78
g59
NtRp2911
(dp2912
g62
(dp2913
sg71
g2898
sg64
(lp2914
g57
(g58
g59
NtRp2915
(dp2916
g62
(dp2917
g70
I4
ssg71
g2911
sg64
(lp2918
S'no-store, no-cache, must-revalidate, post-check=0, pre-check=0'
p2919
asbasbasbag57
(g73
g59
NtRp2920
(dp2921
g62
(dp2922
sg71
g2894
sg64
(lp2923
g57
(g78
g59
NtRp2924
(dp2925
g62
(dp2926
g82
g83
ssg71
g2920
sg64
(lp2927
S'Content-Type'
p2928
asbag57
(g78
g59
NtRp2929
(dp2930
g62
(dp2931
g89
g90
ssg71
g2920
sg64
(lp2932
S':'
asbag57
(g78
g59
NtRp2933
(dp2934
g62
(dp2935
sg71
g2920
sg64
(lp2936
g57
(g58
g59
NtRp2937
(dp2938
g62
(dp2939
g70
I4
ssg71
g2933
sg64
(lp2940
S'text/html; charset=utf-8'
p2941
asbasbasbag57
(g73
g59
NtRp2942
(dp2943
g62
(dp2944
sg71
g2894
sg64
(lp2945
g57
(g78
g59
NtRp2946
(dp2947
g62
(dp2948
g82
g83
ssg71
g2942
sg64
(lp2949
S'Expires'
p2950
asbag57
(g78
g59
NtRp2951
(dp2952
g62
(dp2953
g89
g90
ssg71
g2942
sg64
(lp2954
S':'
asbag57
(g78
g59
NtRp2955
(dp2956
g62
(dp2957
sg71
g2942
sg64
(lp2958
g57
(g58
g59
NtRp2959
(dp2960
g62
(dp2961
g70
I4
ssg71
g2955
sg64
(lp2962
S'Fri, 23 Dec 2011 00:42:20 GMT'
p2963
asbasbasbag57
(g73
g59
NtRp2964
(dp2965
g62
(dp2966
sg71
g2894
sg64
(lp2967
g57
(g78
g59
NtRp2968
(dp2969
g62
(dp2970
g82
g83
ssg71
g2964
sg64
(lp2971
S'Pragma'
p2972
asbag57
(g78
g59
NtRp2973
(dp2974
g62
(dp2975
g89
g90
ssg71
g2964
sg64
(lp2976
S':'
asbag57
(g78
g59
NtRp2977
(dp2978
g62
(dp2979
sg71
g2964
sg64
(lp2980
g57
(g58
g59
NtRp2981
(dp2982
g62
(dp2983
g70
I4
ssg71
g2977
sg64
(lp2984
S'no-cache'
p2985
asbasbasbag57
(g73
g59
NtRp2986
(dp2987
g62
(dp2988
sg71
g2894
sg64
(lp2989
g57
(g78
g59
NtRp2990
(dp2991
g62
(dp2992
g82
g83
ssg71
g2986
sg64
(lp2993
S'X-Powered-By'
p2994
asbag57
(g78
g59
NtRp2995
(dp2996
g62
(dp2997
g89
g90
ssg71
g2986
sg64
(lp2998
S':'
asbag57
(g78
g59
NtRp2999
(dp3000
g62
(dp3001
sg71
g2986
sg64
(lp3002
g57
(g58
g59
NtRp3003
(dp3004
g62
(dp3005
g70
I4
ssg71
g2999
sg64
(lp3006
S'web2py'
p3007
asbasbasbasbasbasbasbag57
(g73
g59
NtRp3008
(dp3009
g62
(dp3010
sg71
g2548
sg64
(lp3011
g57
(g78
g59
NtRp3012
(dp3013
g62
(dp3014
g82
g83
ssg71
g3008
sg64
(lp3015
S'menu'
p3016
asbag57
(g78
g59
NtRp3017
(dp3018
g62
(dp3019
g89
g90
ssg71
g3008
sg64
(lp3020
S':'
asbag57
(g78
g59
NtRp3021
(dp3022
g62
(dp3023
sg71
g3008
sg64
(lp3024
g57
(g58
g59
NtRp3025
(dp3026
g62
(dp3027
g70
I5
ssg71
g3021
sg64
(lp3028
g57
(g66
g59
NtRp3029
(dp3030
g62
(dp3031
g70
I4
ssg71
Nsg64
(lp3032
g57
(g73
g59
NtRp3033
(dp3034
g62
(dp3035
sg71
g3029
sg64
(lp3036
g57
(g78
g59
NtRp3037
(dp3038
g62
(dp3039
sg71
g3033
sg64
(lp3040
g57
(g58
g59
NtRp3041
(dp3042
g62
(dp3043
g70
I4
ssg71
g3037
sg64
(lp3044
g57
(g66
g59
NtRp3045
(dp3046
g62
(dp3047
g70
I3
ssg71
Nsg64
(lp3048
g57
(g73
g59
NtRp3049
(dp3050
g62
(dp3051
sg71
g3045
sg64
(lp3052
g57
(g78
g59
NtRp3053
(dp3054
g62
(dp3055
sg71
g3049
sg64
(lp3056
g57
(g58
g59
NtRp3057
(dp3058
g62
(dp3059
g70
I3
ssg71
g3053
sg64
(lp3060
cgluon.languages
lazyT_unpickle
p3061
(S't\x04\x00\x00\x00Home'
tRp3062
asbasbasbag57
(g73
g59
NtRp3063
(dp3064
g62
(dp3065
sg71
g3045
sg64
(lp3066
g57
(g78
g59
NtRp3067
(dp3068
g62
(dp3069
sg71
g3063
sg64
(lp3070
g57
(g58
g59
NtRp3071
(dp3072
g62
(dp3073
g70
I3
ssg71
g3067
sg64
(lp3074
g100
asbasbasbag57
(g73
g59
NtRp3075
(dp3076
g62
(dp3077
sg71
g3045
sg64
(lp3078
g57
(g78
g59
NtRp3079
(dp3080
g62
(dp3081
sg71
g3075
sg64
(lp3082
g57
(g58
g59
NtRp3083
(dp3084
g62
(dp3085
g70
I3
ssg71
g3079
sg64
(lp3086
S'/jmtws/default/index'
p3087
asbasbasbag57
(g73
g59
NtRp3088
(dp3089
g62
(dp3090
sg71
g3045
sg64
(lp3091
g57
(g78
g59
NtRp3092
(dp3093
g62
(dp3094
sg71
g3088
sg64
(lp3095
g57
(g58
g59
NtRp3096
(dp3097
g62
(dp3098
g70
I3
ssg71
g3092
sg64
(lp3099
g57
(g66
g59
NtRp3100
(dp3101
g62
(dp3102
g70
I2
ssg71
Nsg64
(lp3103
sbasbasbasbasbasbasbasbag57
(g73
g59
NtRp3104
(dp3105
g62
(dp3106
sg71
g3029
sg64
(lp3107
g57
(g78
g59
NtRp3108
(dp3109
g62
(dp3110
sg71
g3104
sg64
(lp3111
g57
(g58
g59
NtRp3112
(dp3113
g62
(dp3114
g70
I4
ssg71
g3108
sg64
(lp3115
g57
(g66
g59
NtRp3116
(dp3117
g62
(dp3118
g70
I3
ssg71
Nsg64
(lp3119
g57
(g73
g59
NtRp3120
(dp3121
g62
(dp3122
sg71
g3116
sg64
(lp3123
g57
(g78
g59
NtRp3124
(dp3125
g62
(dp3126
sg71
g3120
sg64
(lp3127
g57
(g58
g59
NtRp3128
(dp3129
g62
(dp3130
g70
I3
ssg71
g3124
sg64
(lp3131
g57
(cgluon.html
SPAN
p3132
g59
NtRp3133
(dp3134
g62
(dp3135
g82
S'color:yellow'
p3136
ssg71
Nsg64
(lp3137
g3007
asbasbasbasbag57
(g73
g59
NtRp3138
(dp3139
g62
(dp3140
sg71
g3116
sg64
(lp3141
g57
(g78
g59
NtRp3142
(dp3143
g62
(dp3144
sg71
g3138
sg64
(lp3145
g57
(g58
g59
NtRp3146
(dp3147
g62
(dp3148
g70
I3
ssg71
g3142
sg64
(lp3149
g100
asbasbasbag57
(g73
g59
NtRp3150
(dp3151
g62
(dp3152
sg71
g3116
sg64
(lp3153
g57
(g78
g59
NtRp3154
(dp3155
g62
(dp3156
sg71
g3150
sg64
(lp3157
g57
(g58
g59
NtRp3158
(dp3159
g62
(dp3160
g70
I3
ssg71
g3154
sg64
(lp3161
S'None'
p3162
asbasbasbag57
(g73
g59
NtRp3163
(dp3164
g62
(dp3165
sg71
g3116
sg64
(lp3166
g57
(g78
g59
NtRp3167
(dp3168
g62
(dp3169
sg71
g3163
sg64
(lp3170
g57
(g58
g59
NtRp3171
(dp3172
g62
(dp3173
g70
I3
ssg71
g3167
sg64
(lp3174
g57
(g66
g59
NtRp3175
(dp3176
g62
(dp3177
g70
I2
ssg71
Nsg64
(lp3178
g57
(g73
g59
NtRp3179
(dp3180
g62
(dp3181
sg71
g3175
sg64
(lp3182
g57
(g78
g59
NtRp3183
(dp3184
g62
(dp3185
sg71
g3179
sg64
(lp3186
g57
(g58
g59
NtRp3187
(dp3188
g62
(dp3189
g70
I2
ssg71
g3183
sg64
(lp3190
g57
(g66
g59
NtRp3191
(dp3192
g62
(dp3193
g70
I1
ssg71
Nsg64
(lp3194
g57
(g73
g59
NtRp3195
(dp3196
g62
(dp3197
sg71
g3191
sg64
(lp3198
g57
(g78
g59
NtRp3199
(dp3200
g62
(dp3201
sg71
g3195
sg64
(lp3202
g57
(g58
g59
NtRp3203
(dp3204
g62
(dp3205
g70
I1
ssg71
g3199
sg64
(lp3206
g3061
(S's\x08\x00\x00\x00My Sites'
tRp3207
asbasbasbag57
(g73
g59
NtRp3208
(dp3209
g62
(dp3210
sg71
g3191
sg64
(lp3211
g57
(g78
g59
NtRp3212
(dp3213
g62
(dp3214
sg71
g3208
sg64
(lp3215
g57
(g58
g59
NtRp3216
(dp3217
g62
(dp3218
g70
I1
ssg71
g3212
sg64
(lp3219
I00
asbasbasbag57
(g73
g59
NtRp3220
(dp3221
g62
(dp3222
sg71
g3191
sg64
(lp3223
g57
(g78
g59
NtRp3224
(dp3225
g62
(dp3226
sg71
g3220
sg64
(lp3227
g57
(g58
g59
NtRp3228
(dp3229
g62
(dp3230
g70
I1
ssg71
g3224
sg64
(lp3231
S'/admin/default/site'
p3232
asbasbasbasbasbasbasbag57
(g73
g59
NtRp3233
(dp3234
g62
(dp3235
sg71
g3175
sg64
(lp3236
g57
(g78
g59
NtRp3237
(dp3238
g62
(dp3239
sg71
g3233
sg64
(lp3240
g57
(g58
g59
NtRp3241
(dp3242
g62
(dp3243
g70
I2
ssg71
g3237
sg64
(lp3244
g57
(g66
g59
NtRp3245
(dp3246
g62
(dp3247
g70
I1
ssg71
Nsg64
(lp3248
g57
(g73
g59
NtRp3249
(dp3250
g62
(dp3251
sg71
g3245
sg64
(lp3252
g57
(g78
g59
NtRp3253
(dp3254
g62
(dp3255
sg71
g3249
sg64
(lp3256
g57
(g58
g59
NtRp3257
(dp3258
g62
(dp3259
g70
I1
ssg71
g3253
sg64
(lp3260
g3061
(S's\x08\x00\x00\x00This App'
tRp3261
asbasbasbag57
(g73
g59
NtRp3262
(dp3263
g62
(dp3264
sg71
g3245
sg64
(lp3265
g57
(g78
g59
NtRp3266
(dp3267
g62
(dp3268
sg71
g3262
sg64
(lp3269
g57
(g58
g59
NtRp3270
(dp3271
g62
(dp3272
g70
I1
ssg71
g3266
sg64
(lp3273
I00
asbasbasbag57
(g73
g59
NtRp3274
(dp3275
g62
(dp3276
sg71
g3245
sg64
(lp3277
g57
(g78
g59
NtRp3278
(dp3279
g62
(dp3280
sg71
g3274
sg64
(lp3281
g57
(g58
g59
NtRp3282
(dp3283
g62
(dp3284
g70
I1
ssg71
g3278
sg64
(lp3285
S'/admin/default/design/jmtws'
p3286
asbasbasbag57
(g73
g59
NtRp3287
(dp3288
g62
(dp3289
sg71
g3245
sg64
(lp3290
g57
(g78
g59
NtRp3291
(dp3292
g62
(dp3293
sg71
g3287
sg64
(lp3294
g57
(g58
g59
NtRp3295
(dp3296
g62
(dp3297
g70
I1
ssg71
g3291
sg64
(lp3298
(lp3299
(g3061
(S't\n\x00\x00\x00Controller'
tRp3300
I00
S'/admin/default/edit/jmtws/controllers/default.py'
tp3301
a(g3061
(S't\x04\x00\x00\x00View'
tRp3302
I00
S'/admin/default/edit/jmtws/views/default/jmt.html'
tp3303
a(g3061
(S't\x06\x00\x00\x00Layout'
tRp3304
I00
S'/admin/default/edit/jmtws/views/layout.html'
tp3305
a(g3061
(S't\n\x00\x00\x00Stylesheet'
tRp3306
I00
S'/admin/default/edit/jmtws/static/css/web2py.css'
tp3307
a(g3061
(S's\x08\x00\x00\x00DB Model'
tRp3308
I00
S'/admin/default/edit/jmtws/models/db.py'
tp3309
a(g3061
(S's\n\x00\x00\x00Menu Model'
tRp3310
I00
S'/admin/default/edit/jmtws/models/menu.py'
tp3311
a(g3061
(S't\x08\x00\x00\x00Database'
tRp3312
I00
S'/jmtws/appadmin/index'
tp3313
a(g3061
(S't\x06\x00\x00\x00Errors'
tRp3314
I00
S'/admin/default/errors/jmtws'
tp3315
a(g3061
(S't\x05\x00\x00\x00About'
tRp3316
I00
S'/admin/default/about/jmtws'
tp3317
aasbasbasbasbasbasbasbag57
(g73
g59
NtRp3318
(dp3319
g62
(dp3320
sg71
g3175
sg64
(lp3321
g57
(g78
g59
NtRp3322
(dp3323
g62
(dp3324
sg71
g3318
sg64
(lp3325
g57
(g58
g59
NtRp3326
(dp3327
g62
(dp3328
g70
I2
ssg71
g3322
sg64
(lp3329
g57
(g66
g59
NtRp3330
(dp3331
g62
(dp3332
g70
I1
ssg71
Nsg64
(lp3333
g57
(g73
g59
NtRp3334
(dp3335
g62
(dp3336
sg71
g3330
sg64
(lp3337
g57
(g78
g59
NtRp3338
(dp3339
g62
(dp3340
sg71
g3334
sg64
(lp3341
g57
(g58
g59
NtRp3342
(dp3343
g62
(dp3344
g70
I1
ssg71
g3338
sg64
(lp3345
S'web2py.com'
p3346
asbasbasbag57
(g73
g59
NtRp3347
(dp3348
g62
(dp3349
sg71
g3330
sg64
(lp3350
g57
(g78
g59
NtRp3351
(dp3352
g62
(dp3353
sg71
g3347
sg64
(lp3354
g57
(g58
g59
NtRp3355
(dp3356
g62
(dp3357
g70
I1
ssg71
g3351
sg64
(lp3358
I00
asbasbasbag57
(g73
g59
NtRp3359
(dp3360
g62
(dp3361
sg71
g3330
sg64
(lp3362
g57
(g78
g59
NtRp3363
(dp3364
g62
(dp3365
sg71
g3359
sg64
(lp3366
g57
(g58
g59
NtRp3367
(dp3368
g62
(dp3369
g70
I1
ssg71
g3363
sg64
(lp3370
S'http://www.web2py.com'
p3371
asbasbasbag57
(g73
g59
NtRp3372
(dp3373
g62
(dp3374
sg71
g3330
sg64
(lp3375
g57
(g78
g59
NtRp3376
(dp3377
g62
(dp3378
sg71
g3372
sg64
(lp3379
g57
(g58
g59
NtRp3380
(dp3381
g62
(dp3382
g70
I1
ssg71
g3376
sg64
(lp3383
(lp3384
(g3061
(S't\x08\x00\x00\x00Download'
tRp3385
I00
S'http://www.web2py.com/examples/default/download'
p3386
tp3387
a(g3061
(S't\x07\x00\x00\x00Support'
tRp3388
I00
S'http://www.web2py.com/examples/default/support'
p3389
tp3390
a(g3061
(S't\x04\x00\x00\x00Demo'
tRp3391
I00
S'http://web2py.com/demo_admin'
p3392
tp3393
a(g3061
(S's\x0e\x00\x00\x00Quick Examples'
tRp3394
I00
S'http://web2py.com/examples/default/examples'
p3395
tp3396
a(g3061
(S't\x03\x00\x00\x00FAQ'
tRp3397
I00
S'http://web2py.com/AlterEgo'
p3398
tp3399
a(g3061
(S't\x06\x00\x00\x00Videos'
tRp3400
I00
S'http://www.web2py.com/examples/default/videos/'
p3401
tp3402
a(g3061
(S's\x11\x00\x00\x00Free Applications'
tRp3403
I00
S'http://web2py.com/appliances'
p3404
tp3405
a(g3061
(S't\x07\x00\x00\x00Plugins'
tRp3406
I00
S'http://web2py.com/plugins'
p3407
tp3408
a(g3061
(S't\x07\x00\x00\x00Layouts'
tRp3409
I00
S'http://web2py.com/layouts'
p3410
tp3411
a(g3061
(S't\x07\x00\x00\x00Recipes'
tRp3412
I00
S'http://web2pyslices.com/'
p3413
tp3414
a(g3061
(S't\x08\x00\x00\x00Semantic'
tRp3415
I00
S'http://web2py.com/semantic'
p3416
tp3417
aasbasbasbasbasbasbasbag57
(g73
g59
NtRp3418
(dp3419
g62
(dp3420
sg71
g3175
sg64
(lp3421
g57
(g78
g59
NtRp3422
(dp3423
g62
(dp3424
sg71
g3418
sg64
(lp3425
g57
(g58
g59
NtRp3426
(dp3427
g62
(dp3428
g70
I2
ssg71
g3422
sg64
(lp3429
g57
(g66
g59
NtRp3430
(dp3431
g62
(dp3432
g70
I1
ssg71
Nsg64
(lp3433
g57
(g73
g59
NtRp3434
(dp3435
g62
(dp3436
sg71
g3430
sg64
(lp3437
g57
(g78
g59
NtRp3438
(dp3439
g62
(dp3440
sg71
g3434
sg64
(lp3441
g57
(g58
g59
NtRp3442
(dp3443
g62
(dp3444
g70
I1
ssg71
g3438
sg64
(lp3445
g3061
(S't\r\x00\x00\x00Documentation'
tRp3446
asbasbasbag57
(g73
g59
NtRp3447
(dp3448
g62
(dp3449
sg71
g3430
sg64
(lp3450
g57
(g78
g59
NtRp3451
(dp3452
g62
(dp3453
sg71
g3447
sg64
(lp3454
g57
(g58
g59
NtRp3455
(dp3456
g62
(dp3457
g70
I1
ssg71
g3451
sg64
(lp3458
I00
asbasbasbag57
(g73
g59
NtRp3459
(dp3460
g62
(dp3461
sg71
g3430
sg64
(lp3462
g57
(g78
g59
NtRp3463
(dp3464
g62
(dp3465
sg71
g3459
sg64
(lp3466
g57
(g58
g59
NtRp3467
(dp3468
g62
(dp3469
g70
I1
ssg71
g3463
sg64
(lp3470
S'http://www.web2py.com/book'
p3471
asbasbasbag57
(g73
g59
NtRp3472
(dp3473
g62
(dp3474
sg71
g3430
sg64
(lp3475
g57
(g78
g59
NtRp3476
(dp3477
g62
(dp3478
sg71
g3472
sg64
(lp3479
g57
(g58
g59
NtRp3480
(dp3481
g62
(dp3482
g70
I1
ssg71
g3476
sg64
(lp3483
(lp3484
(g3061
(S't\x07\x00\x00\x00Preface'
tRp3485
I00
S'http://www.web2py.com/book/default/chapter/00'
p3486
tp3487
a(g3061
(S't\x0c\x00\x00\x00Introduction'
tRp3488
I00
S'http://www.web2py.com/book/default/chapter/01'
p3489
tp3490
a(g3061
(S't\x06\x00\x00\x00Python'
tRp3491
I00
S'http://www.web2py.com/book/default/chapter/02'
p3492
tp3493
a(g3061
(S't\x08\x00\x00\x00Overview'
tRp3494
I00
S'http://www.web2py.com/book/default/chapter/03'
p3495
tp3496
a(g3061
(S's\x08\x00\x00\x00The Core'
tRp3497
I00
S'http://www.web2py.com/book/default/chapter/04'
p3498
tp3499
a(g3061
(S's\t\x00\x00\x00The Views'
tRp3500
I00
S'http://www.web2py.com/book/default/chapter/05'
p3501
tp3502
a(g3061
(S't\x08\x00\x00\x00Database'
tRp3503
I00
S'http://www.web2py.com/book/default/chapter/06'
p3504
tp3505
a(g3061
(S's\x14\x00\x00\x00Forms and Validators'
tRp3506
I00
S'http://www.web2py.com/book/default/chapter/07'
p3507
tp3508
a(g3061
(S's\r\x00\x00\x00Email and SMS'
tRp3509
I00
S'http://www.web2py.com/book/default/chapter/08'
p3510
tp3511
a(g3061
(S's\x0e\x00\x00\x00Access Control'
tRp3512
I00
S'http://www.web2py.com/book/default/chapter/09'
p3513
tp3514
a(g3061
(S't\x08\x00\x00\x00Services'
tRp3515
I00
S'http://www.web2py.com/book/default/chapter/10'
p3516
tp3517
a(g3061
(S's\x0c\x00\x00\x00Ajax Recipes'
tRp3518
I00
S'http://www.web2py.com/book/default/chapter/11'
p3519
tp3520
a(g3061
(S's\x16\x00\x00\x00Components and Plugins'
tRp3521
I00
S'http://www.web2py.com/book/default/chapter/12'
p3522
tp3523
a(g3061
(S's\x12\x00\x00\x00Deployment Recipes'
tRp3524
I00
S'http://www.web2py.com/book/default/chapter/13'
p3525
tp3526
a(g3061
(S's\r\x00\x00\x00Other Recipes'
tRp3527
I00
S'http://www.web2py.com/book/default/chapter/14'
p3528
tp3529
a(g3061
(S's\r\x00\x00\x00Buy this book'
tRp3530
I00
S'http://stores.lulu.com/web2py'
p3531
tp3532
aasbasbasbasbasbasbasbag57
(g73
g59
NtRp3533
(dp3534
g62
(dp3535
sg71
g3175
sg64
(lp3536
g57
(g78
g59
NtRp3537
(dp3538
g62
(dp3539
sg71
g3533
sg64
(lp3540
g57
(g58
g59
NtRp3541
(dp3542
g62
(dp3543
g70
I2
ssg71
g3537
sg64
(lp3544
g57
(g66
g59
NtRp3545
(dp3546
g62
(dp3547
g70
I1
ssg71
Nsg64
(lp3548
g57
(g73
g59
NtRp3549
(dp3550
g62
(dp3551
sg71
g3545
sg64
(lp3552
g57
(g78
g59
NtRp3553
(dp3554
g62
(dp3555
sg71
g3549
sg64
(lp3556
g57
(g58
g59
NtRp3557
(dp3558
g62
(dp3559
g70
I1
ssg71
g3553
sg64
(lp3560
g3061
(S't\t\x00\x00\x00Community'
tRp3561
asbasbasbag57
(g73
g59
NtRp3562
(dp3563
g62
(dp3564
sg71
g3545
sg64
(lp3565
g57
(g78
g59
NtRp3566
(dp3567
g62
(dp3568
sg71
g3562
sg64
(lp3569
g57
(g58
g59
NtRp3570
(dp3571
g62
(dp3572
g70
I1
ssg71
g3566
sg64
(lp3573
I00
asbasbasbag57
(g73
g59
NtRp3574
(dp3575
g62
(dp3576
sg71
g3545
sg64
(lp3577
g57
(g78
g59
NtRp3578
(dp3579
g62
(dp3580
sg71
g3574
sg64
(lp3581
g57
(g58
g59
NtRp3582
(dp3583
g62
(dp3584
g70
I1
ssg71
g3578
sg64
(lp3585
Nasbasbasbag57
(g73
g59
NtRp3586
(dp3587
g62
(dp3588
sg71
g3545
sg64
(lp3589
g57
(g78
g59
NtRp3590
(dp3591
g62
(dp3592
sg71
g3586
sg64
(lp3593
g57
(g58
g59
NtRp3594
(dp3595
g62
(dp3596
g70
I1
ssg71
g3590
sg64
(lp3597
(lp3598
(g3061
(S't\x06\x00\x00\x00Groups'
tRp3599
I00
S'http://www.web2py.com/examples/default/usergroups'
p3600
tp3601
a(g3061
(S't\x07\x00\x00\x00Twitter'
tRp3602
I00
S'http://twitter.com/web2py'
p3603
tp3604
a(g3061
(S's\t\x00\x00\x00Live Chat'
tRp3605
I00
S'http://webchat.freenode.net/?channels=web2py'
p3606
tp3607
aasbasbasbasbasbasbasbag57
(g73
g59
NtRp3608
(dp3609
g62
(dp3610
sg71
g3175
sg64
(lp3611
g57
(g78
g59
NtRp3612
(dp3613
g62
(dp3614
sg71
g3608
sg64
(lp3615
g57
(g58
g59
NtRp3616
(dp3617
g62
(dp3618
g70
I2
ssg71
g3612
sg64
(lp3619
g57
(g66
g59
NtRp3620
(dp3621
g62
(dp3622
g70
I1
ssg71
Nsg64
(lp3623
g57
(g73
g59
NtRp3624
(dp3625
g62
(dp3626
sg71
g3620
sg64
(lp3627
g57
(g78
g59
NtRp3628
(dp3629
g62
(dp3630
sg71
g3624
sg64
(lp3631
g57
(g58
g59
NtRp3632
(dp3633
g62
(dp3634
g70
I1
ssg71
g3628
sg64
(lp3635
g3061
(S't\x07\x00\x00\x00Plugins'
tRp3636
asbasbasbag57
(g73
g59
NtRp3637
(dp3638
g62
(dp3639
sg71
g3620
sg64
(lp3640
g57
(g78
g59
NtRp3641
(dp3642
g62
(dp3643
sg71
g3637
sg64
(lp3644
g57
(g58
g59
NtRp3645
(dp3646
g62
(dp3647
g70
I1
ssg71
g3641
sg64
(lp3648
I00
asbasbasbag57
(g73
g59
NtRp3649
(dp3650
g62
(dp3651
sg71
g3620
sg64
(lp3652
g57
(g78
g59
NtRp3653
(dp3654
g62
(dp3655
sg71
g3649
sg64
(lp3656
g57
(g58
g59
NtRp3657
(dp3658
g62
(dp3659
g70
I1
ssg71
g3653
sg64
(lp3660
Nasbasbasbag57
(g73
g59
NtRp3661
(dp3662
g62
(dp3663
sg71
g3620
sg64
(lp3664
g57
(g78
g59
NtRp3665
(dp3666
g62
(dp3667
sg71
g3661
sg64
(lp3668
g57
(g58
g59
NtRp3669
(dp3670
g62
(dp3671
g70
I1
ssg71
g3665
sg64
(lp3672
(lp3673
(S'plugin_wiki'
p3674
I00
S'http://web2py.com/examples/default/download'
p3675
tp3676
a(g3061
(S's\r\x00\x00\x00Other Plugins'
tRp3677
I00
g3407
tp3678
a(g3061
(S's\x0e\x00\x00\x00Layout Plugins'
tRp3679
I00
g3410
tp3680
aasbasbasbasbasbasbasbasbasbasbasbasbasbasbasbasbasbasbasbag57
(g73
g59
NtRp3681
(dp3682
g62
(dp3683
sg71
g2548
sg64
(lp3684
g57
(g78
g59
NtRp3685
(dp3686
g62
(dp3687
g82
g83
ssg71
g3681
sg64
(lp3688
S'meta'
p3689
asbag57
(g78
g59
NtRp3690
(dp3691
g62
(dp3692
g89
g90
ssg71
g3681
sg64
(lp3693
S':'
asbag57
(g78
g59
NtRp3694
(dp3695
g62
(dp3696
sg71
g3681
sg64
(lp3697
g57
(g58
g59
NtRp3698
(dp3699
g62
(dp3700
g70
I5
ssg71
g3694
sg64
(lp3701
g57
(g66
g59
NtRp3702
(dp3703
g62
(dp3704
g70
I4
ssg71
Nsg64
(lp3705
g57
(g73
g59
NtRp3706
(dp3707
g62
(dp3708
sg71
g3702
sg64
(lp3709
g57
(g78
g59
NtRp3710
(dp3711
g62
(dp3712
g82
g83
ssg71
g3706
sg64
(lp3713
S'author'
p3714
asbag57
(g78
g59
NtRp3715
(dp3716
g62
(dp3717
g89
g90
ssg71
g3706
sg64
(lp3718
S':'
asbag57
(g78
g59
NtRp3719
(dp3720
g62
(dp3721
sg71
g3706
sg64
(lp3722
g57
(g58
g59
NtRp3723
(dp3724
g62
(dp3725
g70
I4
ssg71
g3719
sg64
(lp3726
S'Your Name <you@example.com>'
p3727
asbasbasbag57
(g73
g59
NtRp3728
(dp3729
g62
(dp3730
sg71
g3702
sg64
(lp3731
g57
(g78
g59
NtRp3732
(dp3733
g62
(dp3734
g82
g83
ssg71
g3728
sg64
(lp3735
S'copyright'
p3736
asbag57
(g78
g59
NtRp3737
(dp3738
g62
(dp3739
g89
g90
ssg71
g3728
sg64
(lp3740
S':'
asbag57
(g78
g59
NtRp3741
(dp3742
g62
(dp3743
sg71
g3728
sg64
(lp3744
g57
(g58
g59
NtRp3745
(dp3746
g62
(dp3747
g70
I4
ssg71
g3741
sg64
(lp3748
S'Copyright 2011'
p3749
asbasbasbag57
(g73
g59
NtRp3750
(dp3751
g62
(dp3752
sg71
g3702
sg64
(lp3753
g57
(g78
g59
NtRp3754
(dp3755
g62
(dp3756
g82
g83
ssg71
g3750
sg64
(lp3757
S'description'
p3758
asbag57
(g78
g59
NtRp3759
(dp3760
g62
(dp3761
g89
g90
ssg71
g3750
sg64
(lp3762
S':'
asbag57
(g78
g59
NtRp3763
(dp3764
g62
(dp3765
sg71
g3750
sg64
(lp3766
g57
(g58
g59
NtRp3767
(dp3768
g62
(dp3769
g70
I4
ssg71
g3763
sg64
(lp3770
S'a cool new app'
p3771
asbasbasbag57
(g73
g59
NtRp3772
(dp3773
g62
(dp3774
sg71
g3702
sg64
(lp3775
g57
(g78
g59
NtRp3776
(dp3777
g62
(dp3778
g82
g83
ssg71
g3772
sg64
(lp3779
S'generator'
p3780
asbag57
(g78
g59
NtRp3781
(dp3782
g62
(dp3783
g89
g90
ssg71
g3772
sg64
(lp3784
S':'
asbag57
(g78
g59
NtRp3785
(dp3786
g62
(dp3787
sg71
g3772
sg64
(lp3788
g57
(g58
g59
NtRp3789
(dp3790
g62
(dp3791
g70
I4
ssg71
g3785
sg64
(lp3792
S'Web2py Web Framework'
p3793
asbasbasbag57
(g73
g59
NtRp3794
(dp3795
g62
(dp3796
sg71
g3702
sg64
(lp3797
g57
(g78
g59
NtRp3798
(dp3799
g62
(dp3800
g82
g83
ssg71
g3794
sg64
(lp3801
S'keywords'
p3802
asbag57
(g78
g59
NtRp3803
(dp3804
g62
(dp3805
g89
g90
ssg71
g3794
sg64
(lp3806
S':'
asbag57
(g78
g59
NtRp3807
(dp3808
g62
(dp3809
sg71
g3794
sg64
(lp3810
g57
(g58
g59
NtRp3811
(dp3812
g62
(dp3813
g70
I4
ssg71
g3807
sg64
(lp3814
S'web2py, python, framework'
p3815
asbasbasbasbasbasbasbag57
(g73
g59
NtRp3816
(dp3817
g62
(dp3818
sg71
g2548
sg64
(lp3819
g57
(g78
g59
NtRp3820
(dp3821
g62
(dp3822
g82
g83
ssg71
g3816
sg64
(lp3823
S'postprocessing'
p3824
asbag57
(g78
g59
NtRp3825
(dp3826
g62
(dp3827
g89
g90
ssg71
g3816
sg64
(lp3828
S':'
asbag57
(g78
g59
NtRp3829
(dp3830
g62
(dp3831
sg71
g3816
sg64
(lp3832
g57
(g58
g59
NtRp3833
(dp3834
g62
(dp3835
g70
I5
ssg71
g3829
sg64
(lp3836
g57
(g66
g59
NtRp3837
(dp3838
g62
(dp3839
g70
I4
ssg71
Nsg64
(lp3840
sbasbasbasbag57
(g73
g59
NtRp3841
(dp3842
g62
(dp3843
sg71
g2548
sg64
(lp3844
g57
(g78
g59
NtRp3845
(dp3846
g62
(dp3847
g82
g83
ssg71
g3841
sg64
(lp3848
S'session_filename'
p3849
asbag57
(g78
g59
NtRp3850
(dp3851
g62
(dp3852
g89
g90
ssg71
g3841
sg64
(lp3853
S':'
asbag57
(g78
g59
NtRp3854
(dp3855
g62
(dp3856
sg71
g3841
sg64
(lp3857
g57
(g58
g59
NtRp3858
(dp3859
g62
(dp3860
g70
I5
ssg71
g3854
sg64
(lp3861
S'/var/www/jmtws/web2py/applications/jmtws/sessions/127.0.0.1-1a03fb49-f478-4600-a6ea-7df2cce93ec7'
p3862
asbasbasbag57
(g73
g59
NtRp3863
(dp3864
g62
(dp3865
sg71
g2548
sg64
(lp3866
g57
(g78
g59
NtRp3867
(dp3868
g62
(dp3869
g82
g83
ssg71
g3863
sg64
(lp3870
S'session_id'
p3871
asbag57
(g78
g59
NtRp3872
(dp3873
g62
(dp3874
g89
g90
ssg71
g3863
sg64
(lp3875
S':'
asbag57
(g78
g59
NtRp3876
(dp3877
g62
(dp3878
sg71
g3863
sg64
(lp3879
g57
(g58
g59
NtRp3880
(dp3881
g62
(dp3882
g70
I5
ssg71
g3876
sg64
(lp3883
S'127.0.0.1-1a03fb49-f478-4600-a6ea-7df2cce93ec7'
p3884
asbasbasbag57
(g73
g59
NtRp3885
(dp3886
g62
(dp3887
sg71
g2548
sg64
(lp3888
g57
(g78
g59
NtRp3889
(dp3890
g62
(dp3891
g82
g83
ssg71
g3885
sg64
(lp3892
S'session_id_name'
p3893
asbag57
(g78
g59
NtRp3894
(dp3895
g62
(dp3896
g89
g90
ssg71
g3885
sg64
(lp3897
S':'
asbag57
(g78
g59
NtRp3898
(dp3899
g62
(dp3900
sg71
g3885
sg64
(lp3901
g57
(g58
g59
NtRp3902
(dp3903
g62
(dp3904
g70
I5
ssg71
g3898
sg64
(lp3905
g2605
asbasbasbag57
(g73
g59
NtRp3906
(dp3907
g62
(dp3908
sg71
g2548
sg64
(lp3909
g57
(g78
g59
NtRp3910
(dp3911
g62
(dp3912
g82
g83
ssg71
g3906
sg64
(lp3913
S'session_new'
p3914
asbag57
(g78
g59
NtRp3915
(dp3916
g62
(dp3917
g89
g90
ssg71
g3906
sg64
(lp3918
S':'
asbag57
(g78
g59
NtRp3919
(dp3920
g62
(dp3921
sg71
g3906
sg64
(lp3922
g57
(g58
g59
NtRp3923
(dp3924
g62
(dp3925
g70
I5
ssg71
g3919
sg64
(lp3926
g1081
asbasbasbag57
(g73
g59
NtRp3927
(dp3928
g62
(dp3929
sg71
g2548
sg64
(lp3930
g57
(g78
g59
NtRp3931
(dp3932
g62
(dp3933
g82
g83
ssg71
g3927
sg64
(lp3934
S'status'
p3935
asbag57
(g78
g59
NtRp3936
(dp3937
g62
(dp3938
g89
g90
ssg71
g3927
sg64
(lp3939
S':'
asbag57
(g78
g59
NtRp3940
(dp3941
g62
(dp3942
sg71
g3927
sg64
(lp3943
g57
(g58
g59
NtRp3944
(dp3945
g62
(dp3946
g70
I5
ssg71
g3940
sg64
(lp3947
S'200'
p3948
asbasbasbag57
(g73
g59
NtRp3949
(dp3950
g62
(dp3951
sg71
g2548
sg64
(lp3952
g57
(g78
g59
NtRp3953
(dp3954
g62
(dp3955
g82
g83
ssg71
g3949
sg64
(lp3956
S'subtitle'
p3957
asbag57
(g78
g59
NtRp3958
(dp3959
g62
(dp3960
g89
g90
ssg71
g3949
sg64
(lp3961
S':'
asbag57
(g78
g59
NtRp3962
(dp3963
g62
(dp3964
sg71
g3949
sg64
(lp3965
g57
(g58
g59
NtRp3966
(dp3967
g62
(dp3968
g70
I5
ssg71
g3962
sg64
(lp3969
g3061
(S's\r\x00\x00\x00customize me!'
tRp3970
asbasbasbag57
(g73
g59
NtRp3971
(dp3972
g62
(dp3973
sg71
g2548
sg64
(lp3974
g57
(g78
g59
NtRp3975
(dp3976
g62
(dp3977
g82
g83
ssg71
g3971
sg64
(lp3978
S'title'
p3979
asbag57
(g78
g59
NtRp3980
(dp3981
g62
(dp3982
g89
g90
ssg71
g3971
sg64
(lp3983
S':'
asbag57
(g78
g59
NtRp3984
(dp3985
g62
(dp3986
sg71
g3971
sg64
(lp3987
g57
(g58
g59
NtRp3988
(dp3989
g62
(dp3990
g70
I5
ssg71
g3984
sg64
(lp3991
S'Jmtws'
p3992
asbasbasbag57
(g73
g59
NtRp3993
(dp3994
g62
(dp3995
sg71
g2548
sg64
(lp3996
g57
(g78
g59
NtRp3997
(dp3998
g62
(dp3999
g82
g83
ssg71
g3993
sg64
(lp4000
g1787
asbag57
(g78
g59
NtRp4001
(dp4002
g62
(dp4003
g89
g90
ssg71
g3993
sg64
(lp4004
S':'
asbag57
(g78
g59
NtRp4005
(dp4006
g62
(dp4007
sg71
g3993
sg64
(lp4008
g57
(g58
g59
NtRp4009
(dp4010
g62
(dp4011
g70
I5
ssg71
g4005
sg64
(lp4012
g1800
asbasbasbag57
(g73
g59
NtRp4013
(dp4014
g62
(dp4015
sg71
g2548
sg64
(lp4016
g57
(g78
g59
NtRp4017
(dp4018
g62
(dp4019
g82
g83
ssg71
g4013
sg64
(lp4020
S'view'
p4021
asbag57
(g78
g59
NtRp4022
(dp4023
g62
(dp4024
g89
g90
ssg71
g4013
sg64
(lp4025
S':'
asbag57
(g78
g59
NtRp4026
(dp4027
g62
(dp4028
sg71
g4013
sg64
(lp4029
g57
(g58
g59
NtRp4030
(dp4031
g62
(dp4032
g70
I5
ssg71
g4026
sg64
(lp4033
S'generic.json'
p4034
asbasbasbasbasbsS'locals'
p4035
(dp4036
S'message'
p4037
S"'ok'"
p4038
sg24
S"('mva',)"
p4039
sS'result'
p4040
g100
sg1809
S"{'a:a': ''}"
p4041
sssS'traceback'
p4042
S'Traceback (most recent call last):\n  File "/var/www/jmtws/web2py/gluon/restricted.py", line 204, in restricted\n    exec ccode in environment\n  File "/var/www/jmtws/web2py/applications/jmtws/controllers/default.py", line 103, in <module>\n  File "/var/www/jmtws/web2py/gluon/globals.py", line 172, in <lambda>\n    self._caller = lambda f: f()\n  File "/var/www/jmtws/web2py/gluon/globals.py", line 138, in f\n    return rest_action(*_self.args,**_self.vars)\n  File "/var/www/jmtws/web2py/applications/jmtws/controllers/default.py", line 34, in POST\n    mode = args[1]\nIndexError: tuple index out of range\n'
p4043
s.